(lp0
(lp1
I1451
aI660
aI1642
aI1889
aI1333
aI3607
aI2919
aI431
aI952
aI1031
aa(lp2
I1451
aI80
aI536
aI2056
aI1359
aI253
aI2541
aI2455
aI3047
aI119
aI1017
aI1031
aa(lp3
I1451
aI1498
aI635
aI1910
aI861
aI2862
aI300
aI3253
aI3302
aI2176
aI3543
aI1031
aa(lp4
I1451
aI555
aI688
aI2263
aI876
aI148
aI2394
aI1959
aI371
aI178
aI1067
aI1031
aa(lp5
I1451
aI711
aI1815
aI53
aI145
aI3103
aI3601
aI3078
aI3231
aI1031
aa(lp6
I1451
aI1704
aI1758
aI2016
aI1261
aI2876
aI3160
aI594
aI2732
aI2210
aI1004
aI1031
aa(lp7
I1451
aI1531
aI1746
aI1656
aI2369
aI2878
aI3574
aI2340
aI3050
aI515
aI952
aI1031
aa(lp8
I1451
aI748
aI673
aI1909
aI1302
aI2843
aI2716
aI2433
aI3555
aI577
aI1038
aI1031
aa(lp9
I1451
aI786
aI726
aI2266
aI878
aI48
aI2911
aI2437
aI2723
aI2231
aI1100
aI1031
aa(lp10
I1451
aI3390
aI1708
aI2128
aI878
aI263
aI3577
aI2457
aI1102
aI1031
aa(lp11
I1451
aI1446
aI1816
aI3412
aI878
aI2862
aI2700
aI2593
aI3036
aI510
aI985
aI1031
aa(lp12
I1451
aI3444
aI722
aI628
aI1347
aI2809
aI2979
aI423
aI3559
aI1667
aI1102
aI1031
aa(lp13
I1451
aI651
aI732
aI3476
aI3188
aI329
aI2906
aI33
aI961
aI1031
aa(lp14
I1451
aI1420
aI1644
aI2042
aI1336
aI2398
aI3208
aI1192
aI2562
aI2189
aI1045
aI1031
aa(lp15
I1451
aI1699
aI637
aI2040
aI2887
aI2874
aI3357
aI587
aI2550
aI3084
aI1122
aI1031
aa(lp16
I1451
aI3395
aI1875
aI3427
aI881
aI2814
aI212
aI3063
aI3040
aI2193
aI1014
aI1031
aa(lp17
I1451
aI1609
aI488
aI558
aI485
aI2520
aI161
aI913
aI3039
aI3333
aI1125
aI1031
aa(lp18
I1451
aI1595
aI536
aI1662
aI876
aI3103
aI214
aI3348
aI3246
aI3260
aI974
aI1031
aa(lp19
I1451
aI2057
aI1814
aI719
aI3491
aI3104
aI139
aI1224
aI3030
aI3316
aI959
aI1031
aa(lp20
I1451
aI948
aI1873
aI3413
aI1269
aI3607
aI2983
aI3332
aI3045
aI3287
aI1014
aI1031
aa(lp21
I1451
aI764
aI1742
aI2139
aI2
aI2646
aI2387
aI418
aI3128
aI499
aI969
aI1031
aa(lp22
I1451
aI1134
aI3387
aI558
aI836
aI262
aI2924
aI2770
aI369
aI108
aI1102
aI1031
aa(lp23
I1451
aI643
aI1744
aI70
aI1278
aI3502
aI891
aI127
aI2731
aI2007
aI980
aI1031
aa(lp24
I1451
aI1471
aI1644
aI2141
aI325
aI2825
aI233
aI2411
aI358
aI2228
aI3546
aI1031
aa(lp25
I1451
aI3451
aI1717
aI2261
aI1296
aI247
aI2676
aI1235
aI3051
aI2192
aI970
aI1031
aa(lp26
I1451
aI1472
aI456
aI2131
aI1339
aI2821
aI233
aI3131
aI3232
aI1031
aa(lp27
I1451
aI778
aI2106
aI717
aI2889
aI459
aI3531
aI3539
aI1088
aI1031
aa(lp28
I1451
aI1439
aI638
aI3432
aI2889
aI3180
aI2910
aI3078
aI1072
aI1031
aa(lp29
I1451
aI1495
aI3387
aI2130
aI1355
aI3610
aI271
aI3053
aI1120
aI1031
aa(lp30
I1451
aI1434
aI3466
aI2470
aI848
aI2526
aI3378
aI1977
aI2756
aI2417
aI1113
aI1031
aa(lp31
I1451
aI1777
aI405
aI2023
aI838
aI387
aI3140
aI1247
aI3295
aI498
aI1099
aI1031
aa(lp32
I1451
aI2061
aI1864
aI1902
aI1266
aI2837
aI201
aI180
aI3030
aI3269
aI1085
aI1031
aa(lp33
I1451
aI708
aI636
aI2140
aI1370
aI3105
aI3091
aI415
aI1130
aI1031
aa(lp34
I1451
aI685
aI1880
aI2040
aI1303
aI2405
aI3119
aI433
aI164
aI514
aI1094
aI1031
aa(lp35
I1451
aI761
aI2110
aI718
aI2267
aI2403
aI2959
aI1206
aI2738
aI1990
aI1064
aI1031
aa(lp36
I1451
aI2079
aI1878
aI2127
aI1311
aI2521
aI3142
aI600
aI292
aI2442
aI973
aI1031
aa(lp37
I1451
aI1553
aI2110
aI529
aI3110
aI2839
aI3600
aI3275
aI3246
aI2434
aI1412
aI1031
aa(lp38
I1451
aI1418
aI636
aI2040
aI1324
aI3104
aI3156
aI3356
aI293
aI2452
aI1028
aI1031
aa(lp39
I1451
aI1552
aI1750
aI2017
aI2486
aI3609
aI3577
aI1968
aI3246
aI1667
aI1018
aI1031
aa(lp40
I1451
aI1485
aI1759
aI1905
aI3487
aI2865
aI3511
aI2436
aI3560
aI3260
aI951
aI1031
aa(lp41
I1451
aI802
aI1741
aI1906
aI1296
aI5
aI3139
aI347
aI290
aI1993
aI972
aI1031
aa(lp42
I1451
aI83
aI1743
aI3477
aI1338
aI385
aI2942
aI415
aI1036
aI1031
aa(lp43
I1451
aI1141
aI86
aI566
aI874
aI2514
aI2541
aI397
aI197
aI3066
aI1050
aI1031
aa(lp44
I1451
aI1587
aI1765
aI1658
aI1321
aI2882
aI3596
aI2452
aI2769
aI498
aI1052
aI1031
aa(lp45
I1451
aI1533
aI1638
aI1902
aI1295
aI2516
aI3202
aI1234
aI2759
aI2174
aI1075
aI1031
aa(lp46
I1451
aI780
aI726
aI2029
aI3487
aI2400
aI268
aI1223
aI360
aI2232
aI952
aI1031
aa(lp47
I1451
aI820
aI3382
aI716
aI1
aI3614
aI2660
aI2599
aI3048
aI1056
aI1036
aI1031
aa(lp48
I1451
aI1483
aI2111
aI623
aI3491
aI2848
aI3144
aI3064
aI1119
aI1031
aa(lp49
I1451
aI654
aI2106
aI1656
aI2653
aI2399
aI212
aI3066
aI1125
aI1031
aa(lp50
I1451
aI798
aI3383
aI1908
aI1279
aI2846
aI3362
aI603
aI3257
aI1996
aI1009
aI1031
aa(lp51
I1451
aI1528
aI1816
aI2044
aI1278
aI2398
aI3355
aI3071
aI1038
aI1031
aa(lp52
I1451
aI1822
aI1769
aI2027
aI145
aI2342
aI2658
aI2623
aI3257
aI2439
aI1083
aI1031
aa(lp53
I1451
aI1519
aI688
aI3426
aI111
aI2397
aI2905
aI2591
aI3256
aI2176
aI1020
aI1031
aa(lp54
I1451
aI2072
aI671
aI486
aI879
aI2816
aI3579
aI336
aI3046
aI2427
aI3252
aI1031
aa(lp55
I1451
aI1528
aI728
aI2137
aI851
aI2880
aI3214
aI3069
aI3556
aI495
aI1036
aI1031
aa(lp56
I1451
aI1140
aI726
aI2042
aI1334
aI3495
aI3277
aI3074
aI3026
aI3291
aI1093
aI1031
aa(lp57
I1451
aI2466
aI1759
aI2363
aI1302
aI2650
aI2391
aI2412
aI952
aI1031
aa(lp58
I1451
aI1828
aI638
aI1899
aI168
aI2847
aI209
aI3248
aI26
aI1990
aI989
aI1031
aa(lp59
I1451
aI1134
aI1874
aI620
aI1315
aI461
aI3207
aI2414
aI123
aI1031
aa(lp60
I1451
aI554
aI3465
aI1890
aI1367
aI2844
aI3117
aI2630
aI3028
aI2184
aI1128
aI1031
aa(lp61
I1451
aI1804
aI3470
aI2130
aI1327
aI3176
aI3577
aI2459
aI3032
aI3552
aI1002
aI1031
aa(lp62
I1451
aI1616
aI1709
aI562
aI1262
aI2836
aI2701
aI2451
aI194
aI575
aI956
aI1031
aa(lp63
I1451
aI2249
aI1637
aI1888
aI1335
aI2827
aI2939
aI173
aI2544
aI3237
aI1036
aI1031
aa(lp64
I1451
aI3447
aI2105
aI1191
aI145
aI2516
aI1250
aI898
aI3016
aI2446
aI3267
aI1031
aa(lp65
I1451
aI1454
aI3383
aI2043
aI1268
aI2832
aI3577
aI127
aI3554
aI1668
aI1116
aI1031
aa(lp66
I1451
aI2085
aI1812
aI2135
aI1327
aI249
aI1255
aI2439
aI1008
aI1031
aa(lp67
I1451
aI1452
aI1641
aI631
aI3621
aI2803
aI374
aI2624
aI3302
aI2417
aI3547
aI1031
aa(lp68
I1451
aI2078
aI1642
aI2017
aI1319
aI330
aI3372
aI2337
aI2763
aI122
aI3249
aI1031
aa(lp69
I1451
aI1599
aI1754
aI563
aI865
aI3497
aI2987
aI21
aI194
aI32
aI116
aI1031
aa(lp70
I1451
aI763
aI732
aI1882
aI1340
aI3182
aI155
aI3082
aI1063
aI1031
aa(lp71
I1451
aI1579
aI2124
aI3429
aI1260
aI2343
aI2664
aI2445
aI194
aI1668
aI1071
aI1031
aa(lp72
I1451
aI1599
aI1772
aI533
aI3623
aI2824
aI2926
aI2446
aI1039
aI1031
aa(lp73
I1451
aI775
aI925
aI626
aI857
aI2395
aI3094
aI1243
aI2555
aI2440
aI1013
aI1031
aa(lp74
I1451
aI2062
aI3473
aI2046
aI859
aI2809
aI443
aI2636
aI360
aI2219
aI1052
aI1031
aa(lp75
I1451
aI1451
aI1758
aI2128
aI869
aI2839
aI268
aI388
aI363
aI2421
aI1108
aI1031
aa(lp76
I1451
aI2068
aI2252
aI1882
aI2268
aI2876
aI302
aI3135
aI359
aI3064
aI1033
aI1031
aa(lp77
I1451
aI1457
aI2354
aI1188
aI845
aI461
aI2979
aI2444
aI190
aI2350
aI1070
aI1031
aa(lp78
I1451
aI1623
aI3472
aI487
aI1324
aI2811
aI3092
aI2451
aI821
aI1031
aa(lp79
I1451
aI3450
aI2359
aI2471
aI1340
aI2811
aI322
aI2771
aI3036
aI2172
aI991
aI1031
aa(lp80
I1451
aI1703
aI2254
aI2056
aI845
aI2871
aI2678
aI1222
aI3284
aI573
aI1131
aI1031
aa(lp81
I1451
aI1496
aI2109
aI2266
aI880
aI2805
aI2785
aI1195
aI3014
aI2005
aI958
aI1031
aa(lp82
I1451
aI746
aI632
aI2366
aI1262
aI2825
aI269
aI422
aI1088
aI1031
aa(lp83
I1451
aI804
aI3475
aI2121
aI1351
aI2652
aI225
aI97
aI189
aI713
aI1012
aI1031
aa(lp84
I1451
aI1479
aI1751
aI2025
aI1305
aI2823
aI2706
aI427
aI1005
aI1031
aa(lp85
I1451
aI1510
aI3465
aI2116
aI848
aI2650
aI3165
aI2446
aI1009
aI1031
aa(lp86
I1451
aI752
aI1641
aI2019
aI1362
aI3611
aI3139
aI1960
aI3301
aI2206
aI1077
aI1031
aa(lp87
I1451
aI1522
aI728
aI2029
aI1275
aI438
aI3145
aI433
aI1023
aI1031
aa(lp88
I1451
aI1542
aI2356
aI2118
aI1333
aI2840
aI2951
aI2162
aI3283
aI2211
aI821
aI1031
aa(lp89
I1451
aI2050
aI922
aI3483
aI1307
aI2846
aI2955
aI2455
aI1129
aI1031
aa(lp90
I1451
aI1796
aI723
aI2028
aI855
aI3502
aI2718
aI1988
aI2555
aI1992
aI1075
aI1031
aa(lp91
I1451
aI1790
aI692
aI70
aI1352
aI2876
aI2923
aI1956
aI2769
aI492
aI986
aI1031
aa(lp92
I1451
aI1136
aI925
aI1662
aI1352
aI3497
aI2977
aI182
aI3028
aI580
aI1045
aI1031
aa(lp93
I1451
aI2050
aI1872
aI1905
aI1352
aI266
aI3598
aI1192
aI195
aI514
aI962
aI1031
aa(lp94
I1451
aI810
aI722
aI2120
aI1366
aI2863
aI3100
aI2772
aI2762
aI2003
aI1063
aI1031
aa(lp95
I1451
aI2093
aI1863
aI404
aI871
aI2857
aI3507
aI1210
aI3284
aI3084
aI1046
aI1031
aa(lp96
I1451
aI552
aI55
aI3477
aI2485
aI2519
aI3190
aI1224
aI189
aI429
aI1087
aI1031
aa(lp97
I1451
aI3459
aI3465
aI2139
aI1307
aI251
aI270
aI3135
aI2747
aI3068
aI986
aI1031
aa(lp98
I1451
aI1569
aI1741
aI1882
aI3617
aI3499
aI2792
aI352
aI2736
aI3053
aI3543
aI1031
aa(lp99
I1451
aI759
aI1649
aI486
aI1265
aI2646
aI2508
aI2425
aI968
aI1031
aa(lp100
I1451
aI810
aI1643
aI2026
aI1318
aI2830
aI890
aI434
aI193
aI2233
aI1059
aI1031
aa(lp101
I1451
aI1798
aI923
aI1189
aI2653
aI252
aI3011
aI2377
aI2742
aI3542
aI1121
aI1031
aa(lp102
I1451
aI1698
aI2109
aI2040
aI2267
aI259
aI2893
aI2451
aI2732
aI2174
aI970
aI1031
aa(lp103
I1451
aI787
aI1706
aI1885
aI842
aI2645
aI3091
aI2609
aI3193
aI2199
aI1125
aI1031
aa(lp104
I1451
aI679
aI675
aI2259
aI2267
aI2847
aI3352
aI2339
aI3559
aI571
aI1117
aI1031
aa(lp105
I1451
aI1728
aI1653
aI2035
aI1306
aI146
aI2714
aI3078
aI1101
aI1031
aa(lp106
I1451
aI1628
aI1878
aI623
aI874
aI441
aI3596
aI2606
aI3017
aI3330
aI958
aI1031
aa(lp107
I1451
aI754
aI1769
aI566
aI1310
aI3102
aI161
aI1217
aI189
aI3305
aI963
aI1031
aa(lp108
I1451
aI1499
aI687
aI2364
aI1322
aI3504
aI2696
aI1226
aI3033
aI3132
aI1109
aI1031
aa(lp109
I1451
aI1607
aI724
aI2040
aI1297
aI2645
aI2890
aI3078
aI2766
aI2221
aI1105
aI1031
aa(lp110
I1451
aI702
aI690
aI617
aI144
aI2821
aI3580
aI2446
aI366
aI576
aI3548
aI1031
aa(lp111
I1451
aI2246
aI1747
aI2020
aI1302
aI2816
aI221
aI1978
aI3130
aI177
aI1129
aI1031
aa(lp112
I1451
aI1724
aI1720
aI535
aI1285
aI2651
aI2678
aI2433
aI2549
aI580
aI1117
aI1031
aa(lp113
I1451
aI1451
aI1708
aI1904
aI843
aI2519
aI2912
aI2578
aI2738
aI3071
aI973
aI1031
aa(lp114
I1451
aI1607
aI1740
aI563
aI846
aI2820
aI138
aI2456
aI1007
aI1031
aa(lp115
I1451
aI1729
aI676
aI2365
aI1375
aI2404
aI228
aI94
aI1067
aI1031
aa(lp116
I1451
aI1576
aI1749
aI2046
aI2267
aI3102
aI209
aI2335
aI2739
aI431
aI968
aI1031
aa(lp117
I1451
aI1681
aI641
aI2265
aI1329
aI328
aI3122
aI331
aI187
aI575
aI1071
aI1031
aa(lp118
I1451
aI1142
aI1637
aI1657
aI3488
aI2826
aI450
aI520
aI370
aI425
aI1130
aI1031
aa(lp119
I1451
aI1592
aI1648
aI2360
aI1287
aI2811
aI2391
aI2161
aI289
aI494
aI1035
aI1031
aa(lp120
I1451
aI1528
aI3465
aI1661
aI872
aI383
aI1255
aI3072
aI3246
aI2199
aI1020
aI1031
aa(lp121
I1451
aI1480
aI923
aI2018
aI1272
aI386
aI320
aI3565
aI2756
aI2453
aI1011
aI1031
aa(lp122
I1451
aI1536
aI2250
aI2262
aI3179
aI2827
aI2921
aI2442
aI1101
aI1031
aa(lp123
I1451
aI1682
aI3469
aI2472
aI1308
aI2526
aI3155
aI2434
aI1047
aI1031
aa(lp124
I1451
aI1456
aI674
aI558
aI1275
aI2819
aI171
aI179
aI3037
aI502
aI1089
aI1031
aa(lp125
I1451
aI1537
aI2482
aI1886
aI1375
aI2515
aI3117
aI2419
aI1031
aI1031
aa(lp126
I1451
aI1574
aI86
aI2055
aI854
aI2854
aI323
aI1242
aI3013
aI1996
aI1026
aI1031
aa(lp127
I1451
aI1633
aI1749
aI2141
aI1342
aI2802
aI2796
aI2618
aI363
aI2208
aI1046
aI1031
aa(lp128
I1451
aI1629
aI1180
aI919
aI842
aI2841
aI274
aI2603
aI188
aI2013
aI1035
aI1031
aa(lp129
I1451
aI546
aI1718
aI2046
aI2372
aI2844
aI202
aI2589
aI3021
aI3085
aI1035
aI1031
aa(lp130
I1451
aI1592
aI1749
aI1189
aI1354
aI2845
aI2946
aI1948
aI142
aI2454
aI3548
aI1031
aa(lp131
I1451
aI679
aI695
aI2266
aI1328
aI3609
aI3010
aI3343
aI359
aI3073
aI1028
aI1031
aa(lp132
I1451
aI1836
aI1857
aI631
aI1258
aI2878
aI3153
aI356
aI3038
aI2190
aI1088
aI1031
aa(lp133
I1451
aI1589
aI2251
aI2120
aI1333
aI2405
aI3361
aI3573
aI290
aI1999
aI1023
aI1031
aa(lp134
I1451
aI2072
aI729
aI1658
aI862
aI250
aI231
aI2432
aI2545
aI2178
aI1124
aI1031
aa(lp135
I1451
aI1632
aI1765
aI2470
aI840
aI2823
aI3601
aI1962
aI3019
aI3538
aI962
aI1031
aa(lp136
I1451
aI66
aI1715
aI3477
aI1
aI3495
aI444
aI3317
aI1072
aI1031
aa(lp137
I1451
aI1472
aI639
aI2037
aI1324
aI2523
aI891
aI3542
aI1092
aI1031
aa(lp138
I1451
aI1580
aI1763
aI2036
aI849
aI442
aI1254
aI175
aI282
aI3241
aI966
aI1031
aa(lp139
I1451
aI1797
aI638
aI2040
aI860
aI381
aI9
aI2425
aI1112
aI1031
aa(lp140
I1451
aI2049
aI633
aI3426
aI1294
aI2652
aI2699
aI1236
aI2723
aI109
aI966
aI1031
aa(lp141
I1451
aI764
aI1716
aI628
aI2370
aI2395
aI3124
aI3333
aI2744
aI977
aI1077
aI1031
aa(lp142
I1451
aI1822
aI1637
aI2042
aI1359
aI2846
aI378
aI3083
aI2759
aI2193
aI974
aI1031
aa(lp143
I1451
aI696
aI1634
aI3419
aI1348
aI249
aI3100
aI422
aI3193
aI577
aI959
aI1031
aa(lp144
I1451
aI1476
aI732
aI1662
aI1285
aI241
aI3002
aI3081
aI3129
aI2012
aI1049
aI1031
aa(lp145
I1451
aI2101
aI86
aI719
aI239
aI3176
aI3000
aI1238
aI2763
aI2451
aI957
aI1031
aa(lp146
I1451
aI550
aI1180
aI2041
aI862
aI3613
aI3146
aI1942
aI3558
aI420
aI1123
aI1031
aa(lp147
I1451
aI943
aI2481
aI2264
aI2269
aI48
aI324
aI3315
aI195
aI713
aI1012
aI1031
aa(lp148
I1451
aI809
aI673
aI1908
aI847
aI2857
aI268
aI894
aI2559
aI3330
aI1029
aI1031
aa(lp149
I1451
aI1731
aI1870
aI2033
aI854
aI3182
aI2539
aI33
aI3019
aI3225
aI970
aI1031
aa(lp150
I1451
aI1838
aI86
aI2036
aI873
aI2870
aI2786
aI413
aI3548
aI1031
aa(lp151
I1451
aI1414
aI1752
aI3480
aI847
aI382
aI20
aI589
aI2741
aI163
aI123
aI1031
aa(lp152
I1451
aI654
aI688
aI1888
aI2486
aI2515
aI2390
aI2442
aI1085
aI1031
aa(lp153
I1451
aI3446
aI488
aI2139
aI843
aI2526
aI1248
aI3071
aI997
aI1031
aa(lp154
I1451
aI1692
aI57
aI3415
aI859
aI2842
aI2392
aI898
aI3283
aI3074
aI1059
aI1031
aa(lp155
I1451
aI1592
aI1746
aI557
aI2371
aI461
aI309
aI2620
aI367
aI2195
aI1015
aI1031
aa(lp156
I1451
aI773
aI1863
aI2132
aI1269
aI3104
aI3375
aI1224
aI3346
aI2227
aI969
aI1031
aa(lp157
I1451
aI3400
aI637
aI3432
aI3179
aI2875
aI237
aI3565
aI3050
aI3072
aI3252
aI1031
aa(lp158
I1451
aI1595
aI1755
aI628
aI239
aI2805
aI3598
aI430
aI973
aI1031
aa(lp159
I1451
aI3453
aI1871
aI2022
aI857
aI2815
aI3153
aI1961
aI2551
aI498
aI1009
aI1031
aa(lp160
I1451
aI1603
aI1717
aI559
aI1357
aI3102
aI446
aI2421
aI1033
aI1031
aa(lp161
I1451
aI757
aI1638
aI2016
aI1356
aI5
aI891
aI3076
aI3025
aI3227
aI951
aI1031
aa(lp162
I1451
aI1792
aI1184
aI2029
aI1328
aI2848
aI237
aI345
aI3031
aI182
aI999
aI1031
aa(lp163
I1451
aI700
aI652
aI2469
aI1358
aI2843
aI2890
aI424
aI3559
aI2235
aI1083
aI1031
aa(lp164
I1451
aI1669
aI1641
aI1909
aI845
aI387
aI3533
aI2449
aI3044
aI3270
aI1102
aI1031
aa(lp165
I1451
aI770
aI1859
aI2484
aI1324
aI254
aI3371
aI2430
aI2554
aI2195
aI980
aI1031
aa(lp166
I1451
aI1534
aI1756
aI2483
aI1360
aI2877
aI3148
aI3079
aI3025
aI571
aI1063
aI1031
aa(lp167
I1451
aI1470
aI2482
aI2031
aI1311
aI2822
aI2798
aI2411
aI3023
aI2201
aI1009
aI1031
aa(lp168
I1451
aI1675
aI3386
aI2041
aI3185
aI2867
aI889
aI2569
aI195
aI3067
aI1074
aI1031
aa(lp169
I1451
aI1605
aI536
aI721
aI1318
aI2846
aI2787
aI590
aI2749
aI174
aI1010
aI1031
aa(lp170
I1451
aI3407
aI722
aI2027
aI1359
aI265
aI3374
aI2412
aI3045
aI574
aI3548
aI1031
aa(lp171
I1451
aI948
aI1861
aI3427
aI1338
aI2848
aI310
aI1204
aI195
aI2426
aI1044
aI1031
aa(lp172
I1451
aI1804
aI1857
aI1658
aI836
aI3181
aI2666
aI1236
aI3044
aI2009
aI1412
aI1031
aa(lp173
I1451
aI1601
aI1634
aI2028
aI1275
aI3609
aI2665
aI912
aI3194
aI2454
aI1006
aI1031
aa(lp174
I1451
aI1558
aI2354
aI3424
aI844
aI2879
aI2892
aI2457
aI2725
aI2172
aI1030
aI1031
aa(lp175
I1451
aI949
aI2480
aI2265
aI1287
aI2857
aI2956
aI182
aI2758
aI2008
aI961
aI1031
aa(lp176
I1451
aI1525
aI694
aI2053
aI1343
aI2804
aI2710
aI3321
aI987
aI1031
aa(lp177
I1451
aI2074
aI1643
aI2366
aI3625
aI2514
aI3156
aI178
aI3035
aI1999
aI1009
aI1031
aa(lp178
I1451
aI2249
aI1813
aI2483
aI848
aI2404
aI2924
aI2418
aI3061
aI2193
aI3232
aI1031
aa(lp179
I1451
aI1146
aI1709
aI567
aI1295
aI2397
aI3580
aI2778
aI2726
aI2201
aI3329
aI1031
aa(lp180
I1451
aI1484
aI637
aI2360
aI1305
aI2397
aI3204
aI3131
aI1086
aI1031
aa(lp181
I1451
aI1828
aI688
aI2265
aI847
aI2650
aI2668
aI3080
aI366
aI2182
aI993
aI1031
aa(lp182
I1451
aI1556
aI693
aI2364
aI3111
aI2837
aI2914
aI2442
aI1012
aI1031
aa(lp183
I1451
aI776
aI728
aI1906
aI1281
aI2848
aI2698
aI2604
aI3301
aI2461
aI1087
aI1031
aa(lp184
I1451
aI1146
aI1716
aI3418
aI3494
aI326
aI320
aI424
aI1033
aI1031
aa(lp185
I1451
aI746
aI57
aI621
aI1263
aI3101
aI225
aI3085
aI821
aI1031
aa(lp186
I1451
aI3219
aI55
aI3415
aI1306
aI2870
aI217
aI904
aI3129
aI424
aI994
aI1031
aa(lp187
I1451
aI1513
aI1766
aI2031
aI111
aI2811
aI2721
aI2420
aI1078
aI1031
aa(lp188
I1451
aI1430
aI1652
aI561
aI1313
aI2524
aI3574
aI2432
aI2733
aI2213
aI131
aI1031
aa(lp189
I1451
aI1495
aI86
aI563
aI862
aI2875
aI216
aI1944
aI359
aI3308
aI1111
aI1031
aa(lp190
I1451
aI1794
aI1855
aI1889
aI1352
aI2853
aI389
aI2419
aI1078
aI1031
aa(lp191
I1451
aI2071
aI1647
aI1188
aI1258
aI2833
aI2969
aI3068
aI3346
aI2184
aI1119
aI1031
aa(lp192
I1451
aI660
aI3387
aI626
aI1280
aI2811
aI157
aI2584
aI2545
aI434
aI1033
aI1031
aa(lp193
I1451
aI807
aI1770
aI2026
aI1272
aI2819
aI2938
aI1193
aI3300
aI2444
aI30
aI1031
aa(lp194
I1451
aI1822
aI727
aI71
aI2485
aI2819
aI3115
aI1218
aI293
aI575
aI1067
aI1031
aa(lp195
I1451
aI2061
aI1651
aI2118
aI2
aI2842
aI210
aI429
aI3035
aI2349
aI1092
aI1031
aa(lp196
I1451
aI1575
aI2112
aI628
aI1334
aI252
aI297
aI3065
aI2752
aI3269
aI1009
aI1031
aa(lp197
I1451
aI743
aI1814
aI2361
aI837
aI2652
aI210
aI178
aI2761
aI3289
aI1051
aI1031
aa(lp198
I1451
aI1453
aI1748
aI631
aI1289
aI2524
aI3376
aI2631
aI3298
aI130
aI972
aI1031
aa(lp199
I1451
aI680
aI2252
aI2026
aI866
aI3499
aI3505
aI1944
aI2762
aI3293
aI953
aI1031
aa(lp200
I1451
aI1629
aI1637
aI2137
aI3178
aI2808
aI3205
aI1214
aI362
aI3270
aI1057
aI1031
aa(lp201
I1451
aI1431
aI1650
aI532
aI1268
aI2832
aI2673
aI2418
aI952
aI1031
aa(lp202
I1451
aI1776
aI1720
aI2017
aI873
aI2828
aI206
aI3076
aI3556
aI2231
aI1100
aI1031
aa(lp203
I1451
aI710
aI1750
aI531
aI1276
aI3605
aI2920
aI180
aI971
aI1031
aa(lp204
I1451
aI1554
aI637
aI553
aI868
aI2852
aI323
aI2440
aI372
aI2184
aI993
aI1031
aa(lp205
I1451
aI1532
aI728
aI2018
aI1331
aI3605
aI2699
aI423
aI3046
aI3234
aI1005
aI1031
aa(lp206
I1451
aI3393
aI1721
aI1900
aI3624
aI386
aI3145
aI2582
aI363
aI517
aI1066
aI1031
aa(lp207
I1451
aI1451
aI1818
aI1898
aI858
aI440
aI2705
aI2634
aI192
aI2012
aI1019
aI1031
aa(lp208
I1451
aI1617
aI633
aI2024
aI1273
aI2804
aI3119
aI431
aI967
aI1031
aa(lp209
I1451
aI1456
aI640
aI2018
aI852
aI6
aI2677
aI2439
aI2546
aI2199
aI1075
aI1031
aa(lp210
I1451
aI1472
aI1634
aI3429
aI1320
aI3103
aI3151
aI2335
aI2753
aI2190
aI1019
aI1031
aa(lp211
I1451
aI752
aI1637
aI2121
aI1296
aI5
aI2674
aI1933
aI293
aI2457
aI3327
aI1031
aa(lp212
I1451
aI60
aI1180
aI565
aI3488
aI2646
aI2507
aI2770
aI3256
aI2187
aI1081
aI1031
aa(lp213
I1451
aI1493
aI1772
aI3412
aI877
aI2872
aI322
aI420
aI3544
aI1031
aa(lp214
I1451
aI1801
aI1182
aI2030
aI1377
aI381
aI2676
aI1948
aI3026
aI713
aI979
aI1031
aa(lp215
I1451
aI3449
aI1646
aI2362
aI1366
aI263
aI3146
aI2423
aI282
aI575
aI971
aI1031
aa(lp216
I1451
aI62
aI1854
aI2139
aI3187
aI2851
aI2912
aI1243
aI3034
aI2217
aI1004
aI1031
aa(lp217
I1451
aI1525
aI1713
aI921
aI857
aI386
aI2954
aI3540
aI2551
aI2217
aI1043
aI1031
aa(lp218
I1451
aI1546
aI1649
aI2022
aI3107
aI3102
aI275
aI335
aI2767
aI2426
aI1112
aI1031
aa(lp219
I1451
aI1580
aI695
aI2264
aI1336
aI2851
aI3208
aI3330
aI2761
aI2181
aI1011
aI1031
aa(lp220
I1451
aI1419
aI727
aI2116
aI1266
aI3613
aI87
aI1951
aI3039
aI3260
aI1095
aI1031
aa(lp221
I1451
aI1627
aI1866
aI2115
aI1370
aI2802
aI3122
aI910
aI3017
aI2457
aI1103
aI1031
aa(lp222
I1451
aI812
aI1855
aI3419
aI1298
aI5
aI323
aI278
aI999
aI1031
aa(lp223
I1451
aI2092
aI674
aI569
aI2370
aI459
aI3277
aI2451
aI1008
aI1031
aa(lp224
I1451
aI3439
aI1640
aI2115
aI1265
aI2862
aI272
aI3253
aI1098
aI1031
aa(lp225
I1451
aI3398
aI1741
aI2030
aI1353
aI381
aI2511
aI3135
aI3194
aI2418
aI1020
aI1031
aa(lp226
I1451
aI1598
aI1811
aI1908
aI1323
aI2528
aI2717
aI2332
aI2723
aI1992
aI1089
aI1031
aa(lp227
I1451
aI1453
aI3473
aI3427
aI3111
aI3180
aI3508
aI1943
aI294
aI3289
aI1052
aI1031
aa(lp228
I1451
aI748
aI1745
aI564
aI1311
aI459
aI271
aI1245
aI188
aI2226
aI1083
aI1031
aa(lp229
I1451
aI2068
aI1762
aI2361
aI1270
aI2885
aI159
aI2440
aI2761
aI2228
aI1027
aI1031
aa(lp230
I1451
aI770
aI1759
aI455
aI875
aI2523
aI2702
aI419
aI2728
aI2182
aI1128
aI1031
aa(lp231
I1451
aI743
aI3383
aI3431
aI1304
aI3502
aI2678
aI2582
aI2743
aI413
aI1123
aI1031
aa(lp232
I1451
aI1479
aI636
aI626
aI1308
aI2878
aI3011
aI2589
aI95
aI572
aI997
aI1031
aa(lp233
I1451
aI701
aI688
aI2364
aI3420
aI3174
aI3207
aI2440
aI1114
aI1031
aa(lp234
I1451
aI1604
aI1765
aI626
aI1264
aI2847
aI2991
aI897
aI2759
aI2455
aI821
aI1031
aa(lp235
I1451
aI642
aI1758
aI2364
aI238
aI2845
aI226
aI2602
aI3048
aI2442
aI1027
aI1031
aa(lp236
I1451
aI137
aI3472
aI455
aI884
aI3105
aI446
aI1938
aI3257
aI3316
aI3549
aI1031
aa(lp237
I1451
aI778
aI724
aI2262
aI840
aI2647
aI3580
aI2445
aI1029
aI1031
aa(lp238
I1451
aI1416
aI676
aI2360
aI1336
aI2871
aI3112
aI177
aI2731
aI2013
aI1019
aI1031
aa(lp239
I1451
aI1725
aI732
aI2128
aI1272
aI2837
aI3153
aI98
aI3061
aI2182
aI1014
aI1031
aa(lp240
I1451
aI1420
aI3381
aI2031
aI860
aI2875
aI2897
aI2605
aI191
aI429
aI3545
aI1031
aa(lp241
I1451
aI1531
aI1741
aI2044
aI1317
aI2868
aI3138
aI2641
aI3061
aI424
aI3267
aI1031
aa(lp242
I1451
aI1483
aI2107
aI1188
aI1349
aI442
aI1255
aI176
aI3030
aI494
aI1045
aI1031
aa(lp243
I1451
aI798
aI1636
aI2025
aI860
aI2867
aI300
aI1213
aI2729
aI575
aI978
aI1031
aa(lp244
I1451
aI1534
aI926
aI3411
aI859
aI262
aI3376
aI2585
aI294
aI2196
aI1066
aI1031
aa(lp245
I1451
aI747
aI1811
aI2265
aI1308
aI2811
aI3508
aI1988
aI3034
aI497
aI958
aI1031
aa(lp246
I1451
aI3449
aI1772
aI2472
aI1280
aI169
aI211
aI2329
aI3128
aI499
aI960
aI1031
aa(lp247
I1451
aI552
aI3472
aI1885
aI2270
aI2342
aI3190
aI1989
aI3028
aI2429
aI1095
aI1031
aa(lp248
I1451
aI682
aI676
aI455
aI1258
aI2822
aI2784
aI3057
aI2545
aI2193
aI1099
aI1031
aa(lp249
I1451
aI1726
aI1739
aI2117
aI1312
aI5
aI317
aI3070
aI3547
aI1031
aa(lp250
I1451
aI703
aI2253
aI2038
aI883
aI2834
aI449
aI3332
aI1106
aI1031
aa(lp251
I1451
aI2353
aI2251
aI1188
aI1328
aI3613
aI2981
aI2376
aI3042
aI2436
aI1077
aI1031
aa(lp252
I1451
aI702
aI2107
aI2037
aI1292
aI2526
aI2934
aI589
aI2762
aI3085
aI1077
aI1031
aa(lp253
I1451
aI1679
aI670
aI2121
aI839
aI2842
aI3122
aI2440
aI1087
aI1031
aa(lp254
I1451
aI556
aI635
aI628
aI2370
aI2849
aI2971
aI2452
aI195
aI2172
aI1047
aI1031
aa(lp255
I1451
aI1542
aI1739
aI2137
aI3619
aI262
aI2704
aI3237
aI972
aI1031
aa(lp256
I1451
aI1489
aI731
aI77
aI1276
aI2400
aI2797
aI1201
aI3555
aI1993
aI1112
aI1031
aa(lp257
I1451
aI742
aI677
aI2256
aI836
aI2828
aI2783
aI2626
aI2543
aI122
aI1066
aI1031
aa(lp258
I1451
aI1824
aI2359
aI2054
aI3491
aI2649
aI88
aI3537
aI3045
aI977
aI1083
aI1031
aa(lp259
I1451
aI1441
aI1710
aI2139
aI3487
aI441
aI3355
aI1979
aI2734
aI130
aI1014
aI1031
aa(lp260
I1451
aI544
aI3470
aI562
aI1370
aI2883
aI3114
aI3068
aI1086
aI1031
aa(lp261
I1451
aI1784
aI3380
aI2261
aI1272
aI2816
aI213
aI184
aI2731
aI2224
aI990
aI1031
aa(lp262
I1451
aI2052
aI1811
aI2141
aI1271
aI327
aI3095
aI2419
aI1109
aI1031
aa(lp263
I1451
aI1628
aI1643
aI2119
aI3623
aI442
aI3374
aI2568
aI369
aI163
aI996
aI1031
aa(lp264
I1451
aI1493
aI1864
aI3415
aI1275
aI2836
aI390
aI2416
aI1013
aI1031
aa(lp265
I1451
aI758
aI1718
aI2041
aI1336
aI3102
aI1251
aI1227
aI371
aI421
aI973
aI1031
aa(lp266
I1451
aI1514
aI1642
aI2259
aI3619
aI7
aI172
aI2639
aI2727
aI2438
aI1088
aI1031
aa(lp267
I1451
aI700
aI1764
aI2126
aI3623
aI2880
aI2673
aI2435
aI1088
aI1031
aa(lp268
I1451
aI1831
aI1857
aI1661
aI2369
aI2648
aI3095
aI3132
aI3026
aI2461
aI1080
aI1031
aa(lp269
I1451
aI1607
aI1870
aI3431
aI1351
aI263
aI2703
aI2339
aI3019
aI496
aI1099
aI1031
aa(lp270
I1451
aI1736
aI1859
aI558
aI863
aI2867
aI3206
aI3320
aI3045
aI1993
aI1075
aI1031
aa(lp271
I1451
aI1689
aI1863
aI2364
aI1337
aI2847
aI90
aI2336
aI3051
aI508
aI1112
aI1031
aa(lp272
I1451
aI1669
aI1654
aI2034
aI1274
aI3103
aI2510
aI431
aI2558
aI2222
aI3545
aI1031
aa(lp273
I1451
aI1521
aI1748
aI630
aI1358
aI2851
aI3095
aI173
aI2727
aI3077
aI1049
aI1031
aa(lp274
I1451
aI809
aI729
aI2472
aI1276
aI2824
aI90
aI2771
aI983
aI1031
aa(lp275
I1451
aI1588
aI3471
aI1894
aI1330
aI2854
aI2782
aI3081
aI2750
aI126
aI1068
aI1031
aa(lp276
I1451
aI1725
aI1182
aI3412
aI2
aI2852
aI3203
aI2643
aI3014
aI3070
aI1102
aI1031
aa(lp277
I1451
aI950
aI2252
aI2022
aI852
aI2650
aI275
aI343
aI3019
aI2427
aI1077
aI1031
aa(lp278
I1451
aI1783
aI670
aI3426
aI1352
aI2405
aI2676
aI2779
aI2766
aI2238
aI1067
aI1031
aa(lp279
I1451
aI1789
aI2481
aI2024
aI839
aI2399
aI3166
aI2416
aI2554
aI502
aI1086
aI1031
aa(lp280
I1451
aI1134
aI1742
aI2362
aI111
aI7
aI2901
aI2336
aI3036
aI2446
aI1067
aI1031
aa(lp281
I1451
aI1537
aI1650
aI2120
aI1333
aI2518
aI232
aI3240
aI3049
aI2174
aI3251
aI1031
aa(lp282
I1451
aI1725
aI1648
aI557
aI1278
aI2344
aI3377
aI2600
aI2743
aI1999
aI1410
aI1031
aa(lp283
I1451
aI3396
aI1870
aI1890
aI883
aI240
aI273
aI182
aI2738
aI3233
aI1094
aI1031
aa(lp284
I1451
aI542
aI1182
aI1885
aI1277
aI2860
aI297
aI3081
aI1130
aI1031
aa(lp285
I1451
aI1537
aI2482
aI2130
aI1366
aI2808
aI155
aI2432
aI994
aI1031
aa(lp286
I1451
aI741
aI55
aI2041
aI1284
aI2822
aI2676
aI3338
aI194
aI2439
aI1113
aI1031
aa(lp287
I1451
aI2064
aI1709
aI1655
aI1325
aI2809
aI2903
aI415
aI1046
aI1031
aa(lp288
I1451
aI1457
aI1817
aI3411
aI3280
aI3181
aI89
aI1933
aI289
aI2411
aI953
aI1031
aa(lp289
I1451
aI1470
aI1747
aI2033
aI853
aI2854
aI216
aI2452
aI3559
aI2347
aI1111
aI1031
aa(lp290
I1451
aI1497
aI1646
aI3485
aI838
aI262
aI2787
aI2628
aI2561
aI3085
aI1059
aI1031
aa(lp291
I1451
aI63
aI1709
aI2484
aI3110
aI2823
aI2952
aI3348
aI193
aI2223
aI1072
aI1031
aa(lp292
I1451
aI3443
aI1763
aI3418
aI839
aI2528
aI275
aI2423
aI181
aI3270
aI1043
aI1031
aa(lp293
I1451
aI3220
aI2356
aI455
aI1321
aI326
aI2972
aI413
aI1029
aI1031
aa(lp294
I1451
aI743
aI1708
aI2038
aI145
aI251
aI236
aI336
aI3022
aI2232
aI1114
aI1031
aa(lp295
I1451
aI1623
aI686
aI1899
aI1354
aI2848
aI3100
aI2456
aI1099
aI1031
aa(lp296
I1451
aI705
aI1873
aI717
aI1341
aI264
aI2896
aI1227
aI2556
aI2007
aI1017
aI1031
aa(lp297
I1451
aI1799
aI1710
aI3429
aI3110
aI2805
aI230
aI127
aI1008
aI1031
aa(lp298
I1451
aI1541
aI1652
aI1888
aI3487
aI2845
aI2719
aI127
aI1000
aI1031
aa(lp299
I1451
aI701
aI1880
aI2118
aI238
aI3502
aI3276
aI2445
aI3047
aI2236
aI1085
aI1031
aa(lp300
I1451
aI1514
aI3471
aI2046
aI885
aI382
aI2695
aI1946
aI181
aI3074
aI966
aI1031
aa(lp301
I1451
aI1134
aI1855
aI2115
aI868
aI2396
aI2911
aI2157
aI2547
aI2218
aI1060
aI1031
aa(lp302
I1451
aI703
aI1816
aI2483
aI1300
aI2518
aI891
aI430
aI3267
aI1031
aa(lp303
I1451
aI1810
aI1858
aI2363
aI2371
aI2860
aI2539
aI2572
aI2741
aI423
aI1005
aI1031
aa(lp304
I1451
aI2047
aI2358
aI70
aI1360
aI2863
aI890
aI3073
aI1004
aI1031
aa(lp305
I1451
aI2052
aI456
aI3476
aI1377
aI2860
aI2922
aI2601
aI3013
aI2238
aI1043
aI1031
aa(lp306
I1451
aI1489
aI1876
aI2026
aI867
aI3176
aI2660
aI2638
aI367
aI495
aI1085
aI1031
aa(lp307
I1451
aI1797
aI2112
aI2036
aI857
aI2649
aI217
aI3070
aI164
aI510
aI3327
aI1031
aa(lp308
I1451
aI2048
aI1719
aI2045
aI3619
aI256
aI2506
aI2376
aI2726
aI497
aI983
aI1031
aa(lp309
I1451
aI809
aI3386
aI2029
aI1335
aI2644
aI2972
aI522
aI3021
aI120
aI998
aI1031
aa(lp310
I1451
aI3390
aI2123
aI1188
aI1359
aI437
aI226
aI3317
aI3267
aI1031
aa(lp311
I1451
aI784
aI2251
aI2041
aI1298
aI3104
aI2963
aI2458
aI2740
aI2228
aI1008
aI1031
aa(lp312
I1451
aI1557
aI2107
aI3428
aI2369
aI2518
aI2707
aI2643
aI3042
aI419
aI993
aI1031
aa(lp313
I1451
aI1597
aI456
aI1891
aI325
aI2343
aI224
aI2439
aI3130
aI2014
aI1048
aI1031
aa(lp314
I1451
aI1546
aI2123
aI2027
aI850
aI241
aI2393
aI522
aI3043
aI3308
aI989
aI1031
aa(lp315
I1451
aI1701
aI1765
aI409
aI1314
aI2830
aI209
aI178
aI1106
aI1031
aa(lp316
I1451
aI650
aI1857
aI2257
aI1359
aI2811
aI3376
aI2582
aI368
aI2416
aI1114
aI1031
aa(lp317
I1451
aI3449
aI2481
aI2026
aI3110
aI243
aI2669
aI2433
aI1075
aI1031
aa(lp318
I1451
aI796
aI1873
aI2264
aI3279
aI2879
aI2896
aI1959
aI3129
aI458
aI1062
aI1031
aa(lp319
I1451
aI1687
aI724
aI2056
aI3619
aI2846
aI2893
aI3084
aI2725
aI2204
aI1122
aI1031
aa(lp320
I1451
aI80
aI1861
aI1905
aI855
aI2652
aI2958
aI3080
aI2758
aI2180
aI123
aI1031
aa(lp321
I1451
aI1538
aI2253
aI3428
aI145
aI3609
aI19
aI3059
aI995
aI1031
aa(lp322
I1451
aI1737
aI1752
aI2137
aI2888
aI2856
aI2964
aI127
aI996
aI1031
aa(lp323
I1451
aI1521
aI2124
aI1896
aI855
aI2869
aI297
aI2415
aI2557
aI516
aI959
aI1031
aa(lp324
I1451
aI1548
aI1858
aI2022
aI1339
aI2859
aI319
aI2411
aI955
aI1031
aa(lp325
I1451
aI1628
aI1863
aI717
aI872
aI381
aI3003
aI2568
aI2751
aI2771
aI3268
aI1031
aa(lp326
I1451
aI1468
aI1759
aI2469
aI1304
aI3611
aI274
aI3058
aI285
aI574
aI1003
aI1031
aa(lp327
I1451
aI946
aI3471
aI558
aI3624
aI461
aI3140
aI2457
aI367
aI3286
aI1082
aI1031
aa(lp328
I1451
aI1512
aI641
aI1191
aI1339
aI2870
aI2390
aI2602
aI2749
aI3077
aI1109
aI1031
aa(lp329
I1451
aI1611
aI1750
aI53
aI1357
aI3497
aI301
aI278
aI2769
aI1995
aI1019
aI1031
aa(lp330
I1451
aI2094
aI1739
aI2032
aI3179
aI2876
aI159
aI2565
aI3194
aI2238
aI1410
aI1031
aa(lp331
I1451
aI950
aI1854
aI624
aI1308
aI2854
aI3361
aI3058
aI1116
aI1031
aa(lp332
I1451
aI808
aI2108
aI77
aI864
aI2833
aI171
aI355
aI3044
aI2000
aI1019
aI1031
aa(lp333
I1451
aI1613
aI3475
aI622
aI3491
aI2867
aI3117
aI426
aI1004
aI1031
aa(lp334
I1451
aI2246
aI1866
aI560
aI1
aI2884
aI2703
aI122
aI31
aI1031
aa(lp335
I1451
aI1552
aI1652
aI486
aI1372
aI2877
aI2696
aI2451
aI3228
aI1031
aa(lp336
I1451
aI2089
aI1860
aI71
aI2369
aI2524
aI2385
aI414
aI2754
aI3271
aI3231
aI1031
aa(lp337
I1451
aI1557
aI727
aI2020
aI1358
aI2825
aI2958
aI899
aI2750
aI2424
aI1111
aI1031
aa(lp338
I1451
aI650
aI1636
aI2483
aI3183
aI2823
aI2783
aI3572
aI2724
aI174
aI1113
aI1031
aa(lp339
I1451
aI1438
aI1815
aI2053
aI1311
aI260
aI2717
aI1978
aI3018
aI3542
aI1045
aI1031
aa(lp340
I1451
aI657
aI1764
aI2118
aI1268
aI3499
aI2799
aI1989
aI281
aI3305
aI1098
aI1031
aa(lp341
I1451
aI1595
aI653
aI1908
aI1323
aI148
aI2668
aI2634
aI3236
aI3286
aI1067
aI1031
aa(lp342
I1451
aI1476
aI1749
aI2016
aI1274
aI2885
aI2930
aI433
aI293
aI2183
aI1070
aI1031
aa(lp343
I1451
aI945
aI671
aI563
aI1275
aI169
aI2915
aI2167
aI3022
aI135
aI983
aI1031
aa(lp344
I1451
aI1608
aI1877
aI2030
aI1351
aI2812
aI3118
aI3082
aI1085
aI1031
aa(lp345
I1451
aI1579
aI1711
aI2042
aI485
aI263
aI2962
aI3332
aI3284
aI1992
aI1010
aI1031
aa(lp346
I1451
aI1473
aI56
aI1885
aI885
aI3496
aI323
aI2593
aI285
aI2445
aI1001
aI1031
aa(lp347
I1451
aI1544
aI1741
aI486
aI111
aI2883
aI2710
aI1945
aI370
aI2220
aI1409
aI1031
aa(lp348
I1451
aI1482
aI652
aI1888
aI882
aI2864
aI2675
aI3565
aI3029
aI2438
aI3329
aI1031
aa(lp349
I1451
aI1677
aI2480
aI2046
aI3491
aI327
aI215
aI2772
aI1068
aI1031
aa(lp350
I1451
aI543
aI1742
aI3433
aI875
aI2805
aI157
aI2439
aI958
aI1031
aa(lp351
I1451
aI1685
aI1742
aI3432
aI403
aI2813
aI3361
aI2453
aI3231
aI1031
aa(lp352
I1451
aI3397
aI1746
aI1899
aI3187
aI2804
aI3124
aI3076
aI2743
aI2241
aI3545
aI1031
aa(lp353
I1451
aI646
aI1712
aI2261
aI842
aI243
aI3154
aI2459
aI291
aI3286
aI1107
aI1031
aa(lp354
I1451
aI1434
aI2255
aI569
aI882
aI3101
aI3137
aI2415
aI164
aI491
aI970
aI1031
aa(lp355
I1451
aI2100
aI1870
aI2364
aI839
aI2822
aI2959
aI3069
aI2748
aI105
aI1126
aI1031
aa(lp356
I1451
aI770
aI2124
aI564
aI1308
aI2864
aI2655
aI2565
aI367
aI2349
aI1010
aI1031
aa(lp357
I1451
aI780
aI1750
aI3485
aI1361
aI329
aI2979
aI3571
aI3035
aI2422
aI985
aI1031
aa(lp358
I1451
aI2099
aI1859
aI2028
aI1288
aI2405
aI302
aI2564
aI366
aI431
aI1032
aI1031
aa(lp359
I1451
aI1629
aI1855
aI72
aI1344
aI2876
aI2696
aI2580
aI3029
aI3079
aI1080
aI1031
aa(lp360
I1451
aI1519
aI3472
aI721
aI1342
aI2405
aI3358
aI340
aI3192
aI3081
aI1072
aI1031
aa(lp361
I1451
aI1440
aI1872
aI2016
aI1361
aI2832
aI2991
aI3071
aI3017
aI3286
aI989
aI1031
aa(lp362
I1451
aI3400
aI725
aI2127
aI1289
aI441
aI2712
aI2456
aI3194
aI120
aI953
aI1031
aa(lp363
I1451
aI1461
aI1755
aI2134
aI1291
aI2845
aI2998
aI1192
aI191
aI2235
aI1078
aI1031
aa(lp364
I1451
aI654
aI1762
aI566
aI1307
aI2404
aI3144
aI2628
aI2726
aI2422
aI966
aI1031
aa(lp365
I1451
aI1516
aI1860
aI2259
aI1289
aI249
aI2961
aI3540
aI1038
aI1031
aa(lp366
I1451
aI1456
aI1772
aI2483
aI1342
aI460
aI295
aI2634
aI2736
aI3225
aI1012
aI1031
aa(lp367
I1451
aI659
aI2109
aI2135
aI885
aI2841
aI151
aI1211
aI3024
aI2242
aI966
aI1031
aa(lp368
I1451
aI2468
aI1645
aI1901
aI3487
aI2825
aI3118
aI3076
aI194
aI1056
aI991
aI1031
aa(lp369
I1451
aI1514
aI2355
aI558
aI1377
aI2826
aI212
aI2421
aI1014
aI1031
aa(lp370
I1451
aI696
aI536
aI2053
aI2888
aI169
aI2982
aI3319
aI1131
aI1031
aa(lp371
I1451
aI1521
aI672
aI2039
aI1285
aI2849
aI2713
aI3334
aI2729
aI3270
aI992
aI1031
aa(lp372
I1451
aI1796
aI1864
aI564
aI849
aI3613
aI2697
aI2412
aI1059
aI1031
aa(lp373
I1451
aI1522
aI2105
aI2025
aI1317
aI2840
aI3165
aI2453
aI3298
aI500
aI1109
aI1031
aa(lp374
I1451
aI1573
aI1759
aI2016
aI3619
aI169
aI3209
aI3069
aI3036
aI2181
aI1032
aI1031
aa(lp375
I1451
aI1566
aI726
aI1902
aI1303
aI241
aI3595
aI1983
aI2739
aI2230
aI1072
aI1031
aa(lp376
I1451
aI1447
aI1711
aI623
aI1262
aI254
aI152
aI903
aI3044
aI434
aI1030
aI1031
aa(lp377
I1451
aI410
aI637
aI2121
aI3188
aI3103
aI226
aI431
aI2747
aI2185
aI3232
aI1031
aa(lp378
I1451
aI1532
aI641
aI2040
aI859
aI2399
aI2980
aI2381
aI2751
aI3330
aI1011
aI1031
aa(lp379
I1451
aI1780
aI1711
aI70
aI849
aI3174
aI158
aI2631
aI3016
aI419
aI981
aI1031
aa(lp380
I1451
aI1546
aI56
aI2043
aI1337
aI240
aI229
aI3255
aI1129
aI1031
aa(lp381
I1451
aI538
aI3381
aI3428
aI1282
aI2849
aI3164
aI422
aI3043
aI1997
aI1109
aI1031
aa(lp382
I1451
aI1432
aI1643
aI2130
aI238
aI2862
aI3211
aI591
aI2740
aI119
aI964
aI1031
aa(lp383
I1451
aI805
aI922
aI531
aI1287
aI240
aI3599
aI1213
aI2766
aI3132
aI1024
aI1031
aa(lp384
I1451
aI1522
aI1641
aI532
aI3179
aI2866
aI3509
aI113
aI292
aI2214
aI997
aI1031
aa(lp385
I1451
aI2100
aI1812
aI2026
aI1274
aI3495
aI2899
aI2438
aI3039
aI3226
aI1090
aI1031
aa(lp386
I1451
aI1724
aI691
aI1901
aI1294
aI2856
aI159
aI2614
aI2756
aI506
aI1115
aI1031
aa(lp387
I1451
aI655
aI687
aI1898
aI1327
aI2647
aI3140
aI895
aI281
aI2203
aI1123
aI1031
aa(lp388
I1451
aI1482
aI56
aI2471
aI3625
aI2816
aI3600
aI1943
aI3050
aI417
aI1044
aI1031
aa(lp389
I1451
aI1623
aI1634
aI52
aI1343
aI260
aI2941
aI335
aI3301
aI33
aI3327
aI1031
aa(lp390
I1451
aI410
aI1716
aI455
aI1
aI330
aI3352
aI23
aI3192
aI3082
aI1110
aI1031
aa(lp391
I1451
aI1440
aI1817
aI1900
aI1261
aI2845
aI3147
aI2436
aI1122
aI1031
aa(lp392
I1451
aI743
aI922
aI626
aI1329
aI437
aI3100
aI3074
aI3022
aI579
aI1109
aI1031
aa(lp393
I1451
aI60
aI2112
aI2115
aI1376
aI2515
aI3138
aI905
aI192
aI3540
aI973
aI1031
aa(lp394
I1451
aI489
aI1871
aI2038
aI851
aI2652
aI3379
aI2380
aI3557
aI576
aI1080
aI1031
aa(lp395
I1451
aI1723
aI2113
aI2470
aI1375
aI2863
aI3195
aI2437
aI959
aI1031
aa(lp396
I1451
aI707
aI922
aI1656
aI1316
aI2806
aI3150
aI3315
aI958
aI1031
aa(lp397
I1451
aI2059
aI1880
aI2469
aI3624
aI251
aI2946
aI3067
aI2735
aI1998
aI1083
aI1031
aa(lp398
I1451
aI1803
aI1651
aI558
aI2372
aI2822
aI2992
aI1193
aI3128
aI2008
aI961
aI1031
aa(lp399
I1451
aI776
aI2110
aI2138
aI1274
aI2862
aI2675
aI2772
aI1032
aI1031
aa(lp400
I1451
aI1564
aI668
aI717
aI1374
aI2805
aI2921
aI2447
aI3544
aI1031
aa(lp401
I1451
aI2067
aI1770
aI2024
aI876
aI439
aI2789
aI1975
aI2749
aI2193
aI1103
aI1031
aa(lp402
I1451
aI1449
aI1706
aI2032
aI3491
aI2522
aI2959
aI2629
aI2762
aI3243
aI3268
aI1031
aa(lp403
I1451
aI489
aI1643
aI3477
aI1288
aI2885
aI3006
aI3248
aI1081
aI1031
aa(lp404
I1451
aI1431
aI674
aI627
aI1309
aI461
aI2915
aI353
aI2736
aI33
aI1129
aI1031
aa(lp405
I1451
aI1142
aI1713
aI716
aI1348
aI2400
aI2394
aI1244
aI190
aI426
aI1072
aI1031
aa(lp406
I1451
aI816
aI2107
aI2469
aI1283
aI2875
aI223
aI2167
aI197
aI3059
aI998
aI1031
aa(lp407
I1451
aI772
aI1875
aI1908
aI3624
aI253
aI301
aI1221
aI3257
aI3304
aI1003
aI1031
aa(lp408
I1451
aI3457
aI1761
aI568
aI1377
aI2650
aI2790
aI2439
aI3295
aI1995
aI982
aI1031
aa(lp409
I1451
aI1414
aI728
aI2365
aI858
aI2861
aI269
aI422
aI2739
aI2184
aI1097
aI1031
aa(lp410
I1451
aI1138
aI724
aI566
aI1258
aI2403
aI1256
aI2615
aI3026
aI1995
aI1072
aI1031
aa(lp411
I1451
aI1577
aI1720
aI2142
aI2888
aI459
aI3362
aI2447
aI2545
aI2011
aI1123
aI1031
aa(lp412
I1451
aI3392
aI1636
aI2118
aI2
aI241
aI2952
aI1969
aI3042
aI130
aI1093
aI1031
aa(lp413
I1451
aI548
aI1751
aI486
aI1361
aI2836
aI392
aI2434
aI3283
aI3269
aI1108
aI1031
aa(lp414
I1451
aI1478
aI727
aI2260
aI1359
aI2880
aI226
aI2414
aI1119
aI1031
aa(lp415
I1451
aI1786
aI1760
aI533
aI1340
aI251
aI3122
aI2419
aI360
aI412
aI1124
aI1031
aa(lp416
I1451
aI1434
aI2356
aI2035
aI872
aI2861
aI3168
aI1955
aI3039
aI33
aI1004
aI1031
aa(lp417
I1451
aI1604
aI1648
aI1888
aI1266
aI2852
aI2938
aI898
aI3258
aI422
aI999
aI1031
aa(lp418
I1451
aI1605
aI1646
aI618
aI1314
aI2523
aI2990
aI3087
aI189
aI2411
aI1119
aI1031
aa(lp419
I1451
aI1542
aI1745
aI1891
aI1267
aI2805
aI2706
aI177
aI972
aI1031
aa(lp420
I1451
aI1434
aI1755
aI2265
aI1327
aI3613
aI2712
aI2426
aI1111
aI1031
aa(lp421
I1451
aI1482
aI1638
aI619
aI1307
aI2864
aI223
aI602
aI2758
aI2346
aI991
aI1031
aa(lp422
I1451
aI1789
aI923
aI1882
aI849
aI2404
aI2951
aI2420
aI371
aI2013
aI1050
aI1031
aa(lp423
I1451
aI1628
aI1770
aI1886
aI3625
aI442
aI212
aI522
aI363
aI2423
aI1019
aI1031
aa(lp424
I1451
aI3392
aI1770
aI2141
aI3488
aI2868
aI235
aI2446
aI181
aI2224
aI995
aI1031
aa(lp425
I1451
aI1421
aI1634
aI1897
aI1331
aI2838
aI3009
aI1236
aI3061
aI1993
aI1075
aI1031
aa(lp426
I1451
aI544
aI56
aI2136
aI1267
aI2854
aI88
aI2440
aI2746
aI516
aI821
aI1031
aa(lp427
I1451
aI1133
aI1758
aI1889
aI1361
aI2524
aI443
aI1981
aI3302
aI2429
aI1119
aI1031
aa(lp428
I1451
aI1143
aI2110
aI561
aI2270
aI2829
aI2973
aI2574
aI361
aI2006
aI1126
aI1031
aa(lp429
I1451
aI1779
aI3383
aI2484
aI3183
aI2809
aI3140
aI21
aI2734
aI2196
aI1100
aI1031
aa(lp430
I1451
aI702
aI1860
aI2130
aI1374
aI246
aI3506
aI3359
aI373
aI577
aI1013
aI1031
aa(lp431
I1451
aI1540
aI1644
aI2142
aI2372
aI2862
aI2972
aI21
aI2557
aI2437
aI3544
aI1031
aa(lp432
I1451
aI705
aI732
aI630
aI3625
aI6
aI449
aI3542
aI3043
aI572
aI1099
aI1031
aa(lp433
I1451
aI1423
aI1859
aI2041
aI868
aI146
aI2661
aI2447
aI2762
aI3269
aI983
aI1031
aa(lp434
I1451
aI3399
aI1866
aI557
aI3110
aI146
aI2386
aI2418
aI288
aI496
aI1002
aI1031
aa(lp435
I1451
aI1472
aI1868
aI1905
aI1318
aI2876
aI275
aI427
aI986
aI1031
aa(lp436
I1451
aI2246
aI1757
aI2043
aI3187
aI442
aI3094
aI2459
aI3546
aI1031
aa(lp437
I1451
aI1532
aI3387
aI622
aI1265
aI2822
aI296
aI2444
aI1066
aI1031
aa(lp438
I1451
aI802
aI694
aI1907
aI1295
aI3495
aI318
aI2772
aI3556
aI2175
aI3228
aI1031
aa(lp439
I1451
aI814
aI694
aI2128
aI1368
aI3102
aI140
aI3356
aI2557
aI2007
aI980
aI1031
aa(lp440
I1451
aI1575
aI1816
aI565
aI1278
aI382
aI2969
aI341
aI3046
aI2183
aI1085
aI1031
aa(lp441
I1451
aI757
aI2355
aI2130
aI872
aI3180
aI2390
aI2442
aI1112
aI1031
aa(lp442
I1451
aI769
aI1758
aI3428
aI1377
aI2849
aI2540
aI1215
aI2761
aI1994
aI1126
aI1031
aa(lp443
I1451
aI1670
aI1746
aI3481
aI3183
aI437
aI232
aI1936
aI2546
aI3075
aI3267
aI1031
aa(lp444
I1451
aI3448
aI1815
aI566
aI1298
aI2828
aI2718
aI2409
aI1030
aI1031
aa(lp445
I1451
aI538
aI1741
aI3410
aI1311
aI440
aI2393
aI1210
aI3046
aI420
aI1086
aI1031
aa(lp446
I1451
aI2087
aI3466
aI2115
aI1322
aI2865
aI2795
aI1238
aI2748
aI3084
aI1022
aI1031
aa(lp447
I1451
aI1848
aI1185
aI1897
aI1306
aI2825
aI228
aI2435
aI142
aI2174
aI1071
aI1031
aa(lp448
I1451
aI3436
aI1740
aI2022
aI1289
aI2873
aI225
aI2438
aI3268
aI1031
aa(lp449
I1451
aI780
aI1878
aI719
aI1313
aI2826
aI2796
aI179
aI995
aI1031
aa(lp450
I1451
aI1546
aI1717
aI718
aI238
aI148
aI2789
aI1960
aI360
aI2226
aI1019
aI1031
aa(lp451
I1451
aI1466
aI2123
aI2028
aI1359
aI2875
aI2789
aI122
aI2733
aI2197
aI1065
aI1031
aa(lp452
I1451
aI1138
aI1812
aI2364
aI3494
aI247
aI2788
aI2380
aI290
aI3133
aI1070
aI1031
aa(lp453
I1451
aI1701
aI1720
aI3410
aI1297
aI2841
aI2967
aI904
aI373
aI1995
aI1088
aI1031
aa(lp454
I1451
aI1698
aI57
aI73
aI3488
aI437
aI3127
aI3348
aI1080
aI1031
aa(lp455
I1451
aI1603
aI2107
aI624
aI1309
aI2515
aI11
aI397
aI2753
aI3065
aI1065
aI1031
aa(lp456
I1451
aI3452
aI1650
aI2035
aI1275
aI2646
aI2506
aI1974
aI192
aI3059
aI1011
aI1031
aa(lp457
I1451
aI2098
aI2482
aI3412
aI1279
aI2836
aI3596
aI434
aI1064
aI1031
aa(lp458
I1451
aI2245
aI922
aI1659
aI1262
aI2852
aI2792
aI1209
aI3557
aI3255
aI1039
aI1031
aa(lp459
I1451
aI1604
aI1636
aI1884
aI1280
aI2845
aI2711
aI417
aI1020
aI1031
aa(lp460
I1451
aI808
aI1855
aI617
aI3177
aI247
aI2659
aI3253
aI973
aI1031
aa(lp461
I1451
aI3220
aI692
aI3418
aI1366
aI2523
aI158
aI1196
aI2726
aI3333
aI966
aI1031
aa(lp462
I1451
aI1723
aI727
aI2021
aI854
aI2521
aI2794
aI1940
aI2725
aI2441
aI30
aI1031
aa(lp463
I1451
aI1789
aI1856
aI3425
aI1260
aI2832
aI3210
aI2601
aI3129
aI2421
aI1071
aI1031
aa(lp464
I1451
aI3389
aI58
aI630
aI1370
aI263
aI2910
aI2414
aI1000
aI1031
aa(lp465
I1451
aI2071
aI2255
aI2259
aI1283
aI169
aI2793
aI3240
aI2562
aI3304
aI972
aI1031
aa(lp466
I1451
aI1781
aI1749
aI3410
aI1270
aI2400
aI3091
aI2161
aI2547
aI426
aI1120
aI1031
aa(lp467
I1451
aI3398
aI3468
aI2020
aI844
aI252
aI3092
aI1961
aI291
aI502
aI3544
aI1031
aa(lp468
I1451
aI2092
aI670
aI1896
aI1291
aI256
aI3119
aI2439
aI3232
aI1031
aa(lp469
I1451
aI1439
aI1756
aI2022
aI1265
aI440
aI3369
aI3539
aI1081
aI1031
aa(lp470
I1451
aI1672
aI3380
aI2256
aI403
aI3607
aI2664
aI3064
aI1037
aI1031
aa(lp471
I1451
aI768
aI1741
aI1890
aI2
aI2813
aI2672
aI338
aI3344
aI3260
aI1115
aI1031
aa(lp472
I1451
aI547
aI1639
aI1907
aI1327
aI2342
aI1254
aI910
aI195
aI3242
aI962
aI1031
aa(lp473
I1451
aI1430
aI1818
aI2046
aI1366
aI437
aI2913
aI2457
aI3231
aI1031
aa(lp474
I1451
aI696
aI725
aI557
aI325
aI381
aI2917
aI3542
aI3016
aI2227
aI1122
aI1031
aa(lp475
I1451
aI748
aI691
aI2045
aI1289
aI2405
aI230
aI1218
aI3128
aI2447
aI3250
aI1031
aa(lp476
I1451
aI1669
aI725
aI2257
aI1367
aI381
aI2892
aI2628
aI2765
aI278
aI959
aI1031
aa(lp477
I1451
aI543
aI1635
aI2138
aI3625
aI385
aI3201
aI2446
aI1097
aI1031
aa(lp478
I1451
aI3216
aI632
aI486
aI1366
aI2519
aI19
aI388
aI3023
aI2450
aI982
aI1031
aa(lp479
I1451
aI1538
aI1865
aI3482
aI1337
aI2880
aI2785
aI3561
aI3019
aI3237
aI967
aI1031
aa(lp480
I1451
aI697
aI2112
aI3485
aI3106
aI459
aI2979
aI2445
aI1100
aI1031
aa(lp481
I1451
aI1704
aI1761
aI2139
aI856
aI2818
aI2673
aI3082
aI1026
aI1031
aa(lp482
I1451
aI1605
aI1647
aI1905
aI1284
aI3102
aI889
aI2457
aI288
aI2169
aI1013
aI1031
aa(lp483
I1451
aI807
aI926
aI628
aI2270
aI2811
aI3090
aI1944
aI2549
aI2009
aI1091
aI1031
aa(lp484
I1451
aI3441
aI3466
aI562
aI1335
aI2860
aI3364
aI1954
aI367
aI571
aI1060
aI1031
aa(lp485
I1451
aI1621
aI1721
aI3433
aI403
aI2519
aI232
aI1975
aI2759
aI3317
aI963
aI1031
aa(lp486
I1451
aI1793
aI2480
aI1888
aI867
aI2803
aI2675
aI333
aI372
aI2203
aI1075
aI1031
aa(lp487
I1451
aI1704
aI1652
aI1659
aI3420
aI2810
aI87
aI2771
aI1047
aI1031
aa(lp488
I1451
aI2084
aI1710
aI1899
aI879
aI2868
aI9
aI3065
aI3045
aI509
aI1411
aI1031
aa(lp489
I1451
aI1828
aI1760
aI2054
aI1305
aI330
aI312
aI586
aI362
aI2238
aI959
aI1031
aa(lp490
I1451
aI1471
aI3469
aI2469
aI1261
aI266
aI450
aI586
aI288
aI2416
aI1103
aI1031
aa(lp491
I1451
aI1695
aI727
aI3427
aI3178
aI2840
aI3511
aI909
aI2549
aI2242
aI1103
aI1031
aa(lp492
I1451
aI658
aI1862
aI532
aI1330
aI2857
aI2958
aI2432
aI3049
aI2189
aI1028
aI1031
aa(lp493
I1451
aI759
aI3465
aI566
aI1327
aI3176
aI3094
aI2412
aI3025
aI2171
aI972
aI1031
aa(lp494
I1451
aI1577
aI456
aI2131
aI1277
aI2520
aI1249
aI1974
aI2748
aI2015
aI1088
aI1031
aa(lp495
I1451
aI1782
aI1637
aI2366
aI867
aI263
aI217
aI3248
aI3252
aI1031
aa(lp496
I1451
aI647
aI1746
aI2129
aI1337
aI387
aI2795
aI3133
aI1074
aI1031
aa(lp497
I1451
aI682
aI1812
aI1900
aI1267
aI2806
aI3363
aI338
aI3042
aI3321
aI1023
aI1031
aa(lp498
I1451
aI1515
aI1879
aI557
aI3280
aI330
aI3139
aI909
aI287
aI571
aI1087
aI1031
aa(lp499
I1451
aI3464
aI1713
aI716
aI1293
aI2841
aI3352
aI2772
aI1006
aI1031
aa(lp500
I1451
aI64
aI3387
aI2363
aI867
aI2841
aI3121
aI2380
aI26
aI182
aI1000
aI1031
aa(lp501
I1451
aI2087
aI1182
aI2365
aI845
aI2838
aI2673
aI1958
aI360
aI2225
aI1038
aI1031
aa(lp502
I1451
aI1826
aI1650
aI2364
aI1258
aI383
aI3602
aI2411
aI2725
aI2007
aI1100
aI1031
aa(lp503
I1451
aI745
aI923
aI569
aI878
aI2813
aI2712
aI714
aI2756
aI2411
aI1001
aI1031
aa(lp504
I1451
aI1535
aI1856
aI3485
aI1364
aI442
aI3363
aI2432
aI979
aI1031
aa(lp505
I1451
aI1669
aI56
aI557
aI1340
aI2400
aI2942
aI2427
aI3301
aI3271
aI1064
aI1031
aa(lp506
I1451
aI3399
aI2358
aI3411
aI878
aI2878
aI152
aI2443
aI1105
aI1031
aa(lp507
I1451
aI3448
aI57
aI1884
aI1281
aI3102
aI215
aI2590
aI189
aI3254
aI1000
aI1031
aa(lp508
I1451
aI1563
aI58
aI3410
aI1337
aI2851
aI2386
aI348
aI164
aI2237
aI1093
aI1031
aa(lp509
I1451
aI1445
aI1769
aI2023
aI1328
aI264
aI2940
aI902
aI189
aI426
aI965
aI1031
aa(lp510
I1451
aI541
aI728
aI2366
aI1
aI2402
aI3190
aI2415
aI1114
aI1031
aa(lp511
I1451
aI1510
aI2114
aI2115
aI1350
aI385
aI1251
aI2618
aI2725
aI2421
aI1129
aI1031
aa(lp512
I1451
aI1450
aI1720
aI2128
aI868
aI2820
aI316
aI2436
aI1085
aI1031
aa(lp513
I1451
aI1673
aI1653
aI3428
aI1360
aI2825
aI299
aI122
aI1090
aI1031
aa(lp514
I1451
aI783
aI686
aI2472
aI1283
aI2342
aI324
aI2443
aI3038
aI2176
aI1069
aI1031
aa(lp515
I1451
aI1501
aI3383
aI1886
aI1328
aI3502
aI269
aI912
aI3555
aI425
aI1086
aI1031
aa(lp516
I1451
aI2095
aI1762
aI1902
aI1314
aI460
aI3375
aI603
aI2746
aI2415
aI994
aI1031
aa(lp517
I1451
aI1609
aI1637
aI487
aI1371
aI2873
aI2961
aI1199
aI3020
aI3075
aI971
aI1031
aa(lp518
I1451
aI1509
aI3385
aI1893
aI1297
aI249
aI18
aI94
aI2556
aI2207
aI967
aI1031
aa(lp519
I1451
aI1690
aI653
aI2361
aI3624
aI3496
aI2784
aI1964
aI3236
aI126
aI974
aI1031
aa(lp520
I1451
aI1438
aI536
aI3430
aI843
aI243
aI171
aI3349
aI3013
aI2348
aI982
aI1031
aa(lp521
I1451
aI1467
aI2480
aI621
aI1349
aI2652
aI317
aI2421
aI951
aI1031
aa(lp522
I1451
aI1827
aI693
aI2127
aI837
aI2836
aI2781
aI341
aI3193
aI1992
aI1107
aI1031
aa(lp523
I1451
aI1821
aI1876
aI3480
aI2653
aI2824
aI890
aI903
aI3039
aI579
aI1117
aI1031
aa(lp524
I1451
aI1525
aI1646
aI52
aI1305
aI2839
aI3120
aI2423
aI1095
aI1031
aa(lp525
I1451
aI788
aI1747
aI1893
aI1285
aI2830
aI3008
aI180
aI1086
aI1031
aa(lp526
I1451
aI679
aI2254
aI2256
aI872
aI7
aI3118
aI2615
aI3554
aI2450
aI1030
aI1031
aa(lp527
I1451
aI66
aI1183
aI2363
aI2371
aI2865
aI2991
aI425
aI1013
aI1031
aa(lp528
I1451
aI2466
aI727
aI1904
aI2369
aI253
aI2971
aI598
aI3244
aI3241
aI994
aI1031
aa(lp529
I1451
aI1467
aI1878
aI3424
aI145
aI3175
aI3277
aI2447
aI1125
aI1031
aa(lp530
I1451
aI1702
aI1813
aI2483
aI1321
aI259
aI3115
aI2334
aI367
aI2422
aI1099
aI1031
aa(lp531
I1451
aI1685
aI1186
aI2366
aI1352
aI3103
aI1249
aI3568
aI3025
aI119
aI3231
aI1031
aa(lp532
I1451
aI1433
aI640
aI2056
aI1302
aI263
aI2978
aI3082
aI3257
aI3259
aI978
aI1031
aa(lp533
I1451
aI650
aI691
aI624
aI2485
aI3103
aI2942
aI2436
aI3061
aI713
aI952
aI1031
aa(lp534
I1451
aI1469
aI1707
aI3430
aI2267
aI2647
aI2392
aI434
aI1129
aI1031
aa(lp535
I1451
aI946
aI732
aI563
aI485
aI3612
aI3152
aI2610
aI289
aI2008
aI1008
aI1031
aa(lp536
I1451
aI1722
aI1763
aI3413
aI1334
aI2808
aI3277
aI3338
aI285
aI2437
aI987
aI1031
aa(lp537
I1451
aI2070
aI1854
aI3418
aI1258
aI3605
aI2994
aI1201
aI287
aI1999
aI972
aI1031
aa(lp538
I1451
aI1596
aI670
aI2037
aI3488
aI2645
aI3100
aI3133
aI1003
aI1031
aa(lp539
I1451
aI778
aI536
aI2128
aI847
aI327
aI2928
aI2441
aI1113
aI1031
aa(lp540
I1451
aI1564
aI3386
aI2469
aI852
aI2342
aI3205
aI423
aI3300
aI2239
aI969
aI1031
aa(lp541
I1451
aI3401
aI2254
aI3477
aI1350
aI2399
aI3352
aI2458
aI3040
aI2233
aI953
aI1031
aa(lp542
I1451
aI2050
aI1747
aI558
aI860
aI2876
aI2955
aI1215
aI3027
aI2449
aI3252
aI1031
aa(lp543
I1451
aI700
aI1711
aI1189
aI840
aI2867
aI2672
aI3566
aI3302
aI3330
aI1094
aI1031
aa(lp544
I1451
aI742
aI1857
aI625
aI1295
aI2807
aI2905
aI2414
aI3555
aI2184
aI1125
aI1031
aa(lp545
I1451
aI1804
aI1769
aI2471
aI1298
aI2407
aI314
aI2376
aI2767
aI179
aI1094
aI1031
aa(lp546
I1451
aI1669
aI690
aI3483
aI2368
aI2815
aI1255
aI388
aI2735
aI3240
aI1411
aI1031
aa(lp547
I1451
aI1691
aI3383
aI1662
aI861
aI3610
aI1254
aI175
aI1052
aI1031
aa(lp548
I1451
aI1579
aI694
aI718
aI1349
aI2849
aI3277
aI180
aI3014
aI2198
aI1069
aI1031
aa(lp549
I1451
aI774
aI2254
aI1885
aI865
aI328
aI3357
aI463
aI3302
aI3083
aI980
aI1031
aa(lp550
I1451
aI1449
aI1769
aI2116
aI881
aI2864
aI3118
aI3064
aI281
aI1994
aI1051
aI1031
aa(lp551
I1451
aI1617
aI1634
aI409
aI1355
aI442
aI2507
aI3317
aI1086
aI1031
aa(lp552
I1451
aI1524
aI1871
aI531
aI1368
aI2397
aI2912
aI3059
aI961
aI1031
aa(lp553
I1451
aI1556
aI1879
aI2265
aI2485
aI2344
aI2700
aI2435
aI95
aI577
aI1117
aI1031
aa(lp554
I1451
aI756
aI1815
aI2257
aI3488
aI2880
aI2705
aI2563
aI2554
aI3076
aI1115
aI1031
aa(lp555
I1451
aI1843
aI3465
aI1890
aI1311
aI381
aI3375
aI2444
aI2732
aI2002
aI1096
aI1031
aa(lp556
I1451
aI814
aI723
aI532
aI885
aI3180
aI3374
aI604
aI358
aI3305
aI1125
aI1031
aa(lp557
I1451
aI1438
aI1855
aI70
aI879
aI326
aI2389
aI2437
aI1071
aI1031
aa(lp558
I1451
aI1687
aI673
aI3411
aI1343
aI3176
aI3118
aI1966
aI2546
aI2201
aI1010
aI1031
aa(lp559
I1451
aI1673
aI1874
aI1897
aI1279
aI3605
aI1256
aI2454
aI1078
aI1031
aa(lp560
I1451
aI1548
aI1654
aI2034
aI1333
aI3610
aI318
aI2411
aI1112
aI1031
aa(lp561
I1451
aI542
aI691
aI70
aI403
aI2803
aI2993
aI2454
aI990
aI1031
aa(lp562
I1451
aI1526
aI1871
aI532
aI1284
aI250
aI3603
aI2159
aI3558
aI278
aI1020
aI1031
aa(lp563
I1451
aI80
aI2124
aI3428
aI1280
aI2869
aI3574
aI3319
aI3232
aI1031
aa(lp564
I1451
aI1703
aI2114
aI409
aI2268
aI2863
aI317
aI1956
aI2546
aI2196
aI1091
aI1031
aa(lp565
I1451
aI1434
aI3387
aI3430
aI1304
aI387
aI3603
aI3349
aI3258
aI2174
aI3327
aI1031
aa(lp566
I1451
aI1728
aI1739
aI621
aI3623
aI2395
aI3529
aI2409
aI3244
aI570
aI1083
aI1031
aa(lp567
I1451
aI2077
aI1644
aI1910
aI837
aI459
aI2782
aI2442
aI2551
aI2242
aI987
aI1031
aa(lp568
I1451
aI550
aI1764
aI567
aI875
aI2884
aI3008
aI2772
aI2550
aI2013
aI1107
aI1031
aa(lp569
I1451
aI1630
aI1772
aI2138
aI857
aI2395
aI2906
aI2426
aI2542
aI2171
aI1115
aI1031
aa(lp570
I1451
aI1439
aI695
aI2135
aI1360
aI2342
aI2896
aI2593
aI293
aI2442
aI1076
aI1031
aa(lp571
I1451
aI540
aI1747
aI2121
aI2372
aI259
aI3373
aI1968
aI2734
aI977
aI1121
aI1031
aa(lp572
I1451
aI1730
aI1876
aI1893
aI1324
aI2524
aI311
aI417
aI1071
aI1031
aa(lp573
I1451
aI1581
aI536
aI624
aI1294
aI2829
aI3575
aI357
aI363
aI3072
aI1105
aI1031
aa(lp574
I1451
aI1688
aI732
aI3415
aI1331
aI2651
aI2664
aI2430
aI31
aI1031
aa(lp575
I1451
aI944
aI2481
aI921
aI1372
aI2854
aI2938
aI3073
aI1060
aI1031
aa(lp576
I1451
aI1568
aI638
aI3418
aI3423
aI3102
aI435
aI2564
aI372
aI3073
aI1079
aI1031
aa(lp577
I1451
aI805
aI3465
aI3482
aI1318
aI2822
aI2795
aI1952
aI2743
aI572
aI980
aI1031
aa(lp578
I1451
aI1549
aI2482
aI567
aI3621
aI2818
aI3201
aI3074
aI1115
aI1031
aa(lp579
I1451
aI948
aI641
aI628
aI1331
aI2649
aI2975
aI2444
aI1063
aI1031
aa(lp580
I1451
aI766
aI2108
aI2045
aI1316
aI250
aI2790
aI3248
aI3250
aI1031
aa(lp581
I1451
aI642
aI1818
aI531
aI1297
aI2407
aI2966
aI184
aI3048
aI2233
aI1111
aI1031
aa(lp582
I1451
aI1439
aI693
aI2034
aI878
aI241
aI3092
aI3339
aI3300
aI174
aI1025
aI1031
aa(lp583
I1451
aI1567
aI1652
aI2040
aI1283
aI2825
aI2697
aI32
aI1074
aI1031
aa(lp584
I1451
aI1615
aI1645
aI2256
aI877
aI2405
aI3366
aI2598
aI3346
aI977
aI1045
aI1031
aa(lp585
I1451
aI1484
aI1818
aI2027
aI1260
aI2864
aI208
aI2451
aI959
aI1031
aa(lp586
I1451
aI1435
aI1851
aI2019
aI1285
aI2650
aI3602
aI3537
aI1106
aI1031
aa(lp587
I1451
aI2098
aI1644
aI623
aI1336
aI2646
aI3003
aI592
aI286
aI3269
aI1031
aI1031
aa(lp588
I1451
aI748
aI1764
aI2115
aI1371
aI440
aI2984
aI3539
aI1096
aI1031
aa(lp589
I1451
aI1433
aI1635
aI1655
aI1313
aI2870
aI887
aI350
aI186
aI2430
aI959
aI1031
aa(lp590
I1451
aI1786
aI673
aI559
aI1344
aI3504
aI10
aI1227
aI164
aI3227
aI972
aI1031
aa(lp591
I1451
aI2050
aI1813
aI1899
aI1365
aI250
aI2702
aI2589
aI3052
aI3538
aI986
aI1031
aa(lp592
I1451
aI709
aI2105
aI2119
aI1287
aI2855
aI3576
aI3254
aI3549
aI1031
aa(lp593
I1451
aI3405
aI456
aI2017
aI3185
aI265
aI234
aI3063
aI970
aI1031
aa(lp594
I1451
aI1544
aI2110
aI1885
aI1304
aI2829
aI155
aI3079
aI1111
aI1031
aa(lp595
I1451
aI1471
aI730
aI2038
aI873
aI264
aI2656
aI1936
aI193
aI2411
aI982
aI1031
aa(lp596
I1451
aI1728
aI1772
aI3485
aI837
aI2845
aI2896
aI2635
aI2558
aI1999
aI1410
aI1031
aa(lp597
I1451
aI548
aI1860
aI1896
aI1346
aI386
aI320
aI1931
aI192
aI3065
aI999
aI1031
aa(lp598
I1451
aI1562
aI1861
aI2030
aI168
aI2832
aI3145
aI714
aI2759
aI1993
aI1113
aI1031
aa(lp599
I1451
aI1723
aI3385
aI1191
aI144
aI256
aI2781
aI3058
aI3345
aI2189
aI131
aI1031
aa(lp600
I1451
aI1775
aI1869
aI719
aI1288
aI438
aI3010
aI522
aI3021
aI2435
aI1108
aI1031
aa(lp601
I1451
aI2066
aI1715
aI1893
aI852
aI438
aI2788
aI2642
aI2559
aI2238
aI1127
aI1031
aa(lp602
I1451
aI1534
aI57
aI455
aI858
aI2846
aI3144
aI422
aI3040
aI2221
aI3549
aI1031
aa(lp603
I1451
aI1682
aI536
aI2132
aI877
aI2848
aI3602
aI1223
aI3017
aI3242
aI973
aI1031
aa(lp604
I1451
aI3221
aI686
aI3432
aI3624
aI387
aI3149
aI2621
aI197
aI3069
aI1065
aI1031
aa(lp605
I1451
aI1134
aI677
aI2360
aI1304
aI2821
aI2669
aI601
aI2557
aI574
aI1035
aI1031
aa(lp606
I1451
aI3439
aI1866
aI568
aI882
aI2519
aI2385
aI433
aI957
aI1031
aa(lp607
I1451
aI3456
aI1812
aI1188
aI1268
aI245
aI3141
aI3075
aI2555
aI2194
aI970
aI1031
aa(lp608
I1451
aI3450
aI1769
aI2366
aI1307
aI246
aI2915
aI421
aI142
aI2181
aI1027
aI1031
aa(lp609
I1451
aI1482
aI641
aI569
aI853
aI2825
aI44
aI414
aI1006
aI1031
aa(lp610
I1451
aI1561
aI634
aI562
aI873
aI250
aI3595
aI3070
aI1091
aI1031
aa(lp611
I1451
aI2098
aI1651
aI455
aI1264
aI250
aI274
aI3069
aI1038
aI1031
aa(lp612
I1451
aI1500
aI2107
aI2018
aI1271
aI3180
aI2966
aI1959
aI187
aI420
aI1101
aI1031
aa(lp613
I1451
aI1566
aI2123
aI2136
aI3624
aI241
aI158
aI1202
aI363
aI1996
aI1123
aI1031
aa(lp614
I1451
aI3446
aI728
aI2117
aI1360
aI2398
aI313
aI354
aI194
aI3254
aI1112
aI1031
aa(lp615
I1451
aI555
aI693
aI626
aI3178
aI2809
aI11
aI3332
aI1116
aI1031
aa(lp616
I1451
aI947
aI1644
aI2364
aI1275
aI2522
aI2669
aI3076
aI3048
aI115
aI970
aI1031
aa(lp617
I1451
aI1845
aI633
aI2266
aI1279
aI461
aI2387
aI2601
aI3559
aI3083
aI1000
aI1031
aa(lp618
I1451
aI1725
aI1869
aI619
aI3624
aI2821
aI3207
aI893
aI2746
aI2449
aI1051
aI1031
aa(lp619
I1451
aI763
aI1753
aI1902
aI454
aI2875
aI2931
aI3135
aI3022
aI2181
aI982
aI1031
aa(lp620
I1451
aI1703
aI1743
aI535
aI1317
aI243
aI2386
aI605
aI3036
aI2205
aI1106
aI1031
aa(lp621
I1451
aI3440
aI1864
aI559
aI862
aI243
aI3091
aI434
aI194
aI2172
aI1410
aI1031
aa(lp622
I1451
aI1545
aI2354
aI2471
aI1354
aI2859
aI2970
aI2434
aI190
aI1990
aI821
aI1031
aa(lp623
I1451
aI1588
aI2110
aI529
aI1338
aI2846
aI2944
aI2417
aI3560
aI2007
aI3546
aI1031
aa(lp624
I1451
aI1588
aI2255
aI2256
aI1326
aI461
aI2656
aI423
aI3031
aI2234
aI959
aI1031
aa(lp625
I1451
aI1497
aI537
aI2027
aI3423
aI2521
aI2934
aI419
aI3268
aI1031
aa(lp626
I1451
aI759
aI1653
aI2137
aI3489
aI2872
aI320
aI2631
aI2731
aI576
aI960
aI1031
aa(lp627
I1451
aI1430
aI2359
aI562
aI1279
aI461
aI237
aI1209
aI3038
aI431
aI1065
aI1031
aa(lp628
I1451
aI1555
aI1745
aI1888
aI3183
aI3496
aI202
aI174
aI2550
aI2346
aI1082
aI1031
aa(lp629
I1451
aI738
aI1878
aI565
aI870
aI2399
aI3159
aI900
aI2742
aI3241
aI31
aI1031
aa(lp630
I1451
aI1669
aI1865
aI628
aI840
aI2816
aI2948
aI2615
aI121
aI427
aI1412
aI1031
aa(lp631
I1451
aI2082
aI1879
aI1891
aI839
aI169
aI3166
aI3076
aI3023
aI3269
aI1008
aI1031
aa(lp632
I1451
aI1531
aI1858
aI624
aI1375
aI326
aI3121
aI2439
aI26
aI2213
aI1411
aI1031
aa(lp633
I1451
aI1567
aI1758
aI3418
aI3621
aI2873
aI2721
aI3133
aI3023
aI2231
aI1105
aI1031
aa(lp634
I1451
aI1681
aI1713
aI1886
aI3108
aI461
aI2720
aI3071
aI367
aI2204
aI1062
aI1031
aa(lp635
I1451
aI1491
aI668
aI619
aI1374
aI2405
aI2781
aI179
aI1043
aI1031
aa(lp636
I1451
aI1613
aI1186
aI618
aI860
aI2645
aI3090
aI174
aI181
aI1998
aI1025
aI1031
aa(lp637
I1451
aI681
aI1709
aI2127
aI870
aI2645
aI2929
aI2610
aI282
aI503
aI821
aI1031
aa(lp638
I1451
aI1803
aI2254
aI2056
aI3623
aI2644
aI3154
aI2415
aI3045
aI570
aI1076
aI1031
aa(lp639
I1451
aI1679
aI1873
aI1901
aI1275
aI2834
aI3010
aI1956
aI3047
aI2216
aI980
aI1031
aa(lp640
I1451
aI2051
aI488
aI2025
aI2887
aI2826
aI2796
aI334
aI26
aI2447
aI1081
aI1031
aa(lp641
I1451
aI1737
aI632
aI623
aI1293
aI253
aI153
aI3081
aI364
aI3272
aI1003
aI1031
aa(lp642
I1451
aI1782
aI1750
aI2039
aI865
aI2820
aI3363
aI3342
aI363
aI2455
aI959
aI1031
aa(lp643
I1451
aI2079
aI1816
aI1659
aI485
aI254
aI3002
aI427
aI2545
aI109
aI1409
aI1031
aa(lp644
I1451
aI1524
aI2255
aI2263
aI3108
aI2515
aI2785
aI2429
aI1021
aI1031
aa(lp645
I1451
aI67
aI1180
aI616
aI1320
aI260
aI3204
aI2608
aI2735
aI2216
aI1004
aI1031
aa(lp646
I1451
aI489
aI1706
aI2040
aI848
aI3496
aI3161
aI3320
aI3061
aI2349
aI1093
aI1031
aa(lp647
I1451
aI2094
aI1874
aI628
aI1353
aI259
aI2797
aI2445
aI2544
aI1991
aI971
aI1031
aa(lp648
I1451
aI489
aI652
aI628
aI1323
aI2834
aI2922
aI2606
aI197
aI458
aI969
aI1031
aa(lp649
I1451
aI793
aI2480
aI2134
aI1285
aI2818
aI3207
aI423
aI1061
aI1031
aa(lp650
I1451
aI1424
aI1879
aI2484
aI884
aI6
aI2981
aI2770
aI3302
aI504
aI1120
aI1031
aa(lp651
I1451
aI1546
aI639
aI620
aI1290
aI252
aI2971
aI3273
aI2748
aI2171
aI1112
aI1031
aa(lp652
I1451
aI949
aI1721
aI921
aI1277
aI3499
aI2711
aI2442
aI955
aI1031
aa(lp653
I1451
aI3390
aI1747
aI531
aI1319
aI2836
aI2966
aI3067
aI2744
aI2218
aI116
aI1031
aa(lp654
I1451
aI1493
aI2252
aI1908
aI2886
aI2885
aI2893
aI3073
aI3018
aI2194
aI1001
aI1031
aa(lp655
I1451
aI1773
aI688
aI2116
aI1353
aI2809
aI2699
aI184
aI2754
aI2221
aI1090
aI1031
aa(lp656
I1451
aI2066
aI686
aI1661
aI2269
aI2399
aI268
aI1242
aI2753
aI176
aI999
aI1031
aa(lp657
I1451
aI795
aI2124
aI557
aI885
aI2839
aI143
aI2610
aI3193
aI2015
aI997
aI1031
aa(lp658
I1451
aI3436
aI1652
aI2126
aI1289
aI328
aI3379
aI2329
aI2755
aI2182
aI1018
aI1031
aa(lp659
I1451
aI2247
aI695
aI1895
aI3108
aI2401
aI303
aI3132
aI3044
aI2204
aI1025
aI1031
aa(lp660
I1451
aI1843
aI729
aI617
aI1355
aI382
aI3142
aI2423
aI361
aI2197
aI1120
aI1031
aa(lp661
I1451
aI1783
aI1180
aI2021
aI3107
aI442
aI3604
aI3132
aI3048
aI2346
aI1107
aI1031
aa(lp662
I1451
aI1834
aI1814
aI533
aI1313
aI3496
aI230
aI2604
aI363
aI33
aI1010
aI1031
aa(lp663
I1451
aI2079
aI1637
aI559
aI1327
aI2645
aI3099
aI714
aI2552
aI2224
aI1098
aI1031
aa(lp664
I1451
aI1777
aI2250
aI2044
aI3107
aI2832
aI2897
aI1219
aI359
aI434
aI1103
aI1031
aa(lp665
I1451
aI1493
aI2109
aI2028
aI862
aI2650
aI3208
aI388
aI3036
aI2235
aI1063
aI1031
aa(lp666
I1451
aI1583
aI3381
aI3428
aI1325
aI2857
aI2997
aI422
aI1017
aI1031
aa(lp667
I1451
aI1795
aI1861
aI533
aI3111
aI3504
aI3208
aI3569
aI281
aI3085
aI1087
aI1031
aa(lp668
I1451
aI2070
aI1763
aI1899
aI111
aI2405
aI3577
aI421
aI1084
aI1031
aa(lp669
I1451
aI3444
aI1643
aI568
aI1267
aI2342
aI3204
aI606
aI3033
aI2433
aI3543
aI1031
aa(lp670
I1451
aI551
aI1651
aI3411
aI144
aI3174
aI275
aI1225
aI3128
aI3270
aI1097
aI1031
aa(lp671
I1451
aI648
aI1760
aI559
aI1366
aI2852
aI3122
aI2628
aI3557
aI3075
aI1079
aI1031
aa(lp672
I1451
aI1596
aI691
aI2136
aI1371
aI2826
aI2999
aI2459
aI1028
aI1031
aa(lp673
I1451
aI1432
aI2482
aI2122
aI3279
aI2401
aI2386
aI3132
aI1097
aI1031
aa(lp674
I1451
aI741
aI1636
aI532
aI1270
aI2518
aI220
aI2565
aI3035
aI3319
aI1003
aI1031
aa(lp675
I1451
aI3459
aI2358
aI561
aI1344
aI247
aI447
aI1246
aI363
aI2180
aI1124
aI1031
aa(lp676
I1451
aI1142
aI671
aI717
aI1312
aI3605
aI320
aI2329
aI3301
aI3068
aI1000
aI1031
aa(lp677
I1451
aI546
aI3471
aI1895
aI1319
aI2518
aI310
aI2604
aI2766
aI496
aI1082
aI1031
aa(lp678
I1451
aI642
aI633
aI565
aI1315
aI2853
aI446
aI462
aI3049
aI2453
aI1127
aI1031
aa(lp679
I1451
aI2071
aI1859
aI3415
aI1376
aI2344
aI444
aI2580
aI3345
aI514
aI1005
aI1031
aa(lp680
I1451
aI1483
aI1867
aI558
aI1299
aI3607
aI2952
aI2598
aI2551
aI3289
aI1111
aI1031
aa(lp681
I1451
aI700
aI1856
aI1189
aI1379
aI2853
aI171
aI3537
aI1045
aI1031
aa(lp682
I1451
aI1618
aI639
aI1894
aI3619
aI2859
aI2997
aI2420
aI1017
aI1031
aa(lp683
I1451
aI2070
aI1862
aI2134
aI872
aI2829
aI3161
aI418
aI1039
aI1031
aa(lp684
I1451
aI2093
aI727
aI72
aI454
aI2852
aI2916
aI356
aI3194
aI498
aI1117
aI1031
aa(lp685
I1451
aI539
aI675
aI2365
aI3279
aI148
aI215
aI1247
aI2734
aI2435
aI1023
aI1031
aa(lp686
I1451
aI3440
aI1868
aI404
aI1264
aI2514
aI308
aI3079
aI3548
aI1031
aa(lp687
I1451
aI1485
aI727
aI72
aI853
aI2857
aI2800
aI3319
aI3041
aI579
aI1007
aI1031
aa(lp688
I1451
aI794
aI1706
aI1898
aI852
aI250
aI295
aI3568
aI2559
aI2461
aI3232
aI1031
aa(lp689
I1451
aI806
aI1879
aI409
aI1320
aI3611
aI2993
aI2570
aI3559
aI2447
aI964
aI1031
aa(lp690
I1451
aI546
aI1814
aI623
aI1261
aI256
aI3373
aI906
aI2558
aI2012
aI992
aI1031
aa(lp691
I1451
aI1495
aI1878
aI719
aI2367
aI3502
aI3372
aI2160
aI3236
aI425
aI1070
aI1031
aa(lp692
I1451
aI3439
aI1878
aI2031
aI3184
aI2815
aI2993
aI587
aI370
aI2196
aI993
aI1031
aa(lp693
I1451
aI549
aI693
aI2034
aI873
aI2402
aI2720
aI2456
aI3038
aI3241
aI1015
aI1031
aa(lp694
I1451
aI781
aI1635
aI561
aI881
aI2856
aI3204
aI3084
aI3236
aI2213
aI974
aI1031
aa(lp695
I1451
aI1606
aI3471
aI3431
aI1311
aI3614
aI435
aI3131
aI2766
aI2192
aI1027
aI1031
aa(lp696
I1451
aI1430
aI1867
aI3477
aI3491
aI2398
aI3003
aI426
aI366
aI2002
aI3545
aI1031
aa(lp697
I1451
aI1838
aI1855
aI486
aI843
aI329
aI3141
aI3084
aI1067
aI1031
aa(lp698
I1451
aI1568
aI1879
aI624
aI885
aI330
aI2796
aI2459
aI1084
aI1031
aa(lp699
I1451
aI1556
aI1721
aI2133
aI3489
aI3499
aI2948
aI906
aI2559
aI2431
aI1074
aI1031
aa(lp700
I1451
aI3450
aI3471
aI618
aI1269
aI262
aI3159
aI2632
aI3024
aI417
aI1087
aI1031
aa(lp701
I1451
aI1729
aI2480
aI563
aI1323
aI2806
aI3112
aI2419
aI2756
aI3243
aI994
aI1031
aa(lp702
I1451
aI1684
aI926
aI2132
aI847
aI2526
aI2394
aI427
aI3554
aI109
aI3249
aI1031
aa(lp703
I1451
aI1703
aI641
aI2129
aI1365
aI2838
aI389
aI174
aI2544
aI2189
aI1031
aI1031
aa(lp704
I1451
aI1730
aI1877
aI2021
aI1310
aI2854
aI889
aI2449
aI3030
aI3304
aI1035
aI1031
aa(lp705
I1451
aI1461
aI1714
aI568
aI837
aI2804
aI2954
aI3248
aI1131
aI1031
aa(lp706
I1451
aI1576
aI1869
aI2036
aI2269
aI2806
aI2714
aI589
aI189
aI2350
aI1122
aI1031
aa(lp707
I1451
aI2086
aI1757
aI2138
aI1366
aI3497
aI3367
aI3085
aI3033
aI495
aI1119
aI1031
aa(lp708
I1451
aI1602
aI1750
aI2020
aI1364
aI3495
aI3352
aI906
aI3034
aI2204
aI1005
aI1031
aa(lp709
I1451
aI1613
aI1742
aI1906
aI1377
aI264
aI2910
aI179
aI1085
aI1031
aa(lp710
I1451
aI1836
aI632
aI1191
aI3111
aI3175
aI3125
aI3077
aI2769
aI2216
aI3228
aI1031
aa(lp711
I1451
aI3458
aI638
aI2265
aI2368
aI328
aI150
aI417
aI1021
aI1031
aa(lp712
I1451
aI1499
aI668
aI2365
aI1280
aI2874
aI3210
aI2639
aI3046
aI2450
aI1022
aI1031
aa(lp713
I1451
aI701
aI1634
aI2056
aI1267
aI326
aI2955
aI422
aI363
aI3233
aI1070
aI1031
aa(lp714
I1451
aI1415
aI1751
aI2056
aI1351
aI2516
aI1257
aI588
aI359
aI2425
aI1018
aI1031
aa(lp715
I1451
aI1823
aI640
aI569
aI866
aI2396
aI2970
aI3068
aI1064
aI1031
aa(lp716
I1451
aI3447
aI723
aI3430
aI1361
aI383
aI318
aI422
aI282
aI2345
aI1117
aI1031
aa(lp717
I1451
aI1575
aI1747
aI3476
aI850
aI3181
aI3373
aI1937
aI2761
aI2242
aI961
aI1031
aa(lp718
I1451
aI801
aI1652
aI3419
aI3187
aI2810
aI3157
aI2329
aI2738
aI2412
aI1009
aI1031
aa(lp719
I1451
aI655
aI1635
aI2261
aI1354
aI386
aI2952
aI3133
aI1064
aI1031
aa(lp720
I1451
aI1573
aI671
aI1906
aI3183
aI2851
aI151
aI1201
aI142
aI2015
aI3231
aI1031
aa(lp721
I1451
aI1695
aI1744
aI2127
aI852
aI2884
aI2897
aI3081
aI1061
aI1031
aa(lp722
I1451
aI556
aI638
aI2131
aI1273
aI2812
aI275
aI1226
aI362
aI2457
aI1116
aI1031
aa(lp723
I1451
aI67
aI1752
aI2115
aI1294
aI2812
aI3159
aI178
aI1059
aI1031
aa(lp724
I1451
aI3393
aI1859
aI73
aI1317
aI2836
aI3206
aI433
aI3042
aI3233
aI1103
aI1031
aa(lp725
I1451
aI1681
aI1870
aI529
aI857
aI3495
aI3139
aI2438
aI1048
aI1031
aa(lp726
I1451
aI680
aI3468
aI1901
aI2371
aI2861
aI2964
aI1229
aI361
aI2412
aI3547
aI1031
aa(lp727
I1451
aI2058
aI653
aI3429
aI3487
aI442
aI2539
aI182
aI2741
aI2209
aI1107
aI1031
aa(lp728
I1451
aI787
aI1741
aI1909
aI1369
aI3105
aI2705
aI2455
aI2752
aI2231
aI1084
aI1031
aa(lp729
I1451
aI1530
aI2112
aI2018
aI875
aI2826
aI2962
aI3240
aI1111
aI1031
aa(lp730
I1451
aI1604
aI2255
aI2044
aI1372
aI2866
aI887
aI3136
aI3246
aI3078
aI1099
aI1031
aa(lp731
I1451
aI1613
aI730
aI560
aI1266
aI2822
aI3163
aI2593
aI3060
aI3083
aI1029
aI1031
aa(lp732
I1451
aI1541
aI1714
aI921
aI1340
aI2885
aI3575
aI3068
aI291
aI501
aI1128
aI1031
aa(lp733
I1451
aI707
aI676
aI622
aI1309
aI3613
aI3146
aI2440
aI2751
aI503
aI3549
aI1031
aa(lp734
I1451
aI3436
aI536
aI1659
aI147
aI2863
aI2716
aI3356
aI2748
aI2346
aI1115
aI1031
aa(lp735
I1451
aI1561
aI1712
aI1909
aI886
aI3174
aI2389
aI2335
aI2766
aI2178
aI3544
aI1031
aa(lp736
I1451
aI2072
aI1770
aI2037
aI1351
aI169
aI19
aI2415
aI1100
aI1031
aa(lp737
I1451
aI2085
aI1869
aI529
aI873
aI2819
aI2711
aI1951
aI187
aI2770
aI996
aI1031
aa(lp738
I1451
aI552
aI1760
aI531
aI3280
aI2879
aI3151
aI463
aI2746
aI2191
aI1084
aI1031
aa(lp739
I1451
aI747
aI686
aI1881
aI883
aI2647
aI158
aI2444
aI189
aI2012
aI1079
aI1031
aa(lp740
I1451
aI2103
aI1815
aI1890
aI844
aI3182
aI20
aI33
aI1030
aI1031
aa(lp741
I1451
aI1484
aI1767
aI2116
aI3107
aI2342
aI2662
aI3248
aI2744
aI3552
aI994
aI1031
aa(lp742
I1451
aI82
aI728
aI625
aI1311
aI2811
aI2915
aI3073
aI2759
aI511
aI1050
aI1031
aa(lp743
I1451
aI759
aI1766
aI2126
aI1
aI3181
aI2391
aI3068
aI1018
aI1031
aa(lp744
I1451
aI1554
aI1815
aI564
aI1356
aI2806
aI3529
aI2427
aI1096
aI1031
aa(lp745
I1451
aI1682
aI2111
aI2129
aI1296
aI263
aI3534
aI602
aI3045
aI3084
aI980
aI1031
aa(lp746
I1451
aI3392
aI1860
aI1901
aI1300
aI244
aI3148
aI2777
aI2728
aI430
aI1032
aI1031
aa(lp747
I1451
aI539
aI635
aI1888
aI3493
aI48
aI3363
aI184
aI3030
aI2014
aI985
aI1031
aa(lp748
I1451
aI1773
aI1865
aI621
aI1272
aI262
aI2695
aI2775
aI2731
aI279
aI1031
aI1031
aa(lp749
I1451
aI1435
aI726
aI1886
aI1299
aI3181
aI2996
aI2425
aI2758
aI2182
aI1024
aI1031
aa(lp750
I1451
aI1725
aI2110
aI3426
aI3177
aI2814
aI3159
aI2625
aI2549
aI3068
aI1072
aI1031
aa(lp751
I1451
aI3403
aI1861
aI2025
aI869
aI2823
aI2967
aI97
aI3061
aI2446
aI1001
aI1031
aa(lp752
I1451
aI1480
aI722
aI2019
aI877
aI2879
aI274
aI3334
aI370
aI122
aI953
aI1031
aa(lp753
I1451
aI3401
aI1875
aI2119
aI1320
aI3181
aI112
aI584
aI2558
aI2205
aI3329
aI1031
aa(lp754
I1451
aI1581
aI1639
aI2042
aI1358
aI2883
aI274
aI331
aI2724
aI2169
aI970
aI1031
aa(lp755
I1451
aI780
aI1860
aI1659
aI3494
aI2403
aI3353
aI2450
aI3327
aI1031
aa(lp756
I1451
aI1470
aI1856
aI2117
aI1353
aI2809
aI3160
aI417
aI1069
aI1031
aa(lp757
I1451
aI1137
aI636
aI3429
aI863
aI265
aI309
aI1937
aI3128
aI3259
aI1035
aI1031
aa(lp758
I1451
aI1828
aI2480
aI2020
aI1351
aI2845
aI170
aI2618
aI2561
aI492
aI1104
aI1031
aa(lp759
I1451
aI1627
aI2481
aI404
aI238
aI460
aI2980
aI162
aI197
aI2241
aI969
aI1031
aa(lp760
I1451
aI1602
aI2359
aI3419
aI1316
aI3104
aI2909
aI2162
aI2736
aI3240
aI1031
aI1031
aa(lp761
I1451
aI766
aI1759
aI2142
aI861
aI2861
aI2701
aI3133
aI1097
aI1031
aa(lp762
I1451
aI1522
aI57
aI2042
aI1372
aI2885
aI2511
aI1243
aI3298
aI2199
aI1097
aI1031
aa(lp763
I1451
aI540
aI2255
aI617
aI1265
aI2863
aI2905
aI2582
aI287
aI574
aI967
aI1031
aa(lp764
I1451
aI1575
aI1641
aI1908
aI1359
aI2821
aI2974
aI2618
aI188
aI576
aI3267
aI1031
aa(lp765
I1451
aI2099
aI641
aI2016
aI2370
aI2857
aI313
aI2454
aI3024
aI2221
aI1063
aI1031
aa(lp766
I1451
aI3403
aI1851
aI2364
aI1365
aI2846
aI150
aI3059
aI3231
aI1031
aa(lp767
I1451
aI1704
aI1877
aI626
aI1357
aI330
aI3160
aI3071
aI3258
aI2239
aI3549
aI1031
aa(lp768
I1451
aI1583
aI3380
aI3485
aI2653
aI3182
aI3189
aI278
aI2765
aI2003
aI985
aI1031
aa(lp769
I1451
aI551
aI1770
aI72
aI1365
aI2644
aI2659
aI3273
aI358
aI2236
aI1059
aI1031
aa(lp770
I1451
aI763
aI670
aI2040
aI1375
aI2824
aI205
aI122
aI1127
aI1031
aa(lp771
I1451
aI1780
aI1751
aI2469
aI874
aI2405
aI2960
aI2621
aI2749
aI2437
aI1114
aI1031
aa(lp772
I1451
aI776
aI2106
aI617
aI2653
aI3504
aI3214
aI2580
aI3559
aI2217
aI1096
aI1031
aa(lp773
I1451
aI2352
aI3466
aI2126
aI854
aI2807
aI3005
aI2160
aI190
aI278
aI3549
aI1031
aa(lp774
I1451
aI711
aI1179
aI3480
aI854
aI6
aI3595
aI3320
aI960
aI1031
aa(lp775
I1451
aI1545
aI1852
aI2027
aI3624
aI2825
aI2927
aI2456
aI978
aI1031
aa(lp776
I1451
aI1544
aI1649
aI2470
aI3109
aI3102
aI2659
aI426
aI2725
aI458
aI1002
aI1031
aa(lp777
I1451
aI2098
aI926
aI2265
aI1352
aI48
aI3603
aI3078
aI980
aI1031
aa(lp778
I1451
aI548
aI3382
aI2137
aI1377
aI263
aI3600
aI1222
aI3020
aI3085
aI1051
aI1031
aa(lp779
I1451
aI1621
aI2252
aI630
aI3280
aI2526
aI2896
aI2335
aI285
aI2004
aI1028
aI1031
aa(lp780
I1451
aI1520
aI639
aI486
aI1310
aI383
aI2386
aI1233
aI369
aI2230
aI1128
aI1031
aa(lp781
I1451
aI794
aI1707
aI1884
aI2653
aI251
aI3002
aI3079
aI3018
aI1990
aI1077
aI1031
aa(lp782
I1451
aI1148
aI1859
aI1900
aI851
aI3101
aI3365
aI2594
aI2752
aI3240
aI1122
aI1031
aa(lp783
I1451
aI1527
aI536
aI404
aI1285
aI2856
aI3011
aI2422
aI990
aI1031
aa(lp784
I1451
aI1499
aI729
aI2120
aI1344
aI2808
aI2656
aI2167
aI3013
aI2429
aI1117
aI1031
aa(lp785
I1451
aI2059
aI1870
aI531
aI1343
aI2832
aI207
aI913
aI2726
aI3259
aI1020
aI1031
aa(lp786
I1451
aI1450
aI1644
aI404
aI875
aI2839
aI2900
aI2329
aI3301
aI429
aI1003
aI1031
aa(lp787
I1451
aI2052
aI1652
aI3430
aI861
aI2842
aI3010
aI1941
aI3129
aI413
aI3252
aI1031
aa(lp788
I1451
aI1437
aI3380
aI3481
aI2367
aI2839
aI3602
aI3081
aI285
aI2213
aI1124
aI1031
aa(lp789
I1451
aI2101
aI1634
aI2040
aI1331
aI2399
aI2674
aI3085
aI3017
aI2182
aI1130
aI1031
aa(lp790
I1451
aI1532
aI694
aI1881
aI1372
aI252
aI44
aI355
aI186
aI2179
aI3232
aI1031
aa(lp791
I1451
aI1684
aI677
aI1906
aI1298
aI2398
aI3512
aI2426
aI3032
aI3304
aI1115
aI1031
aa(lp792
I1451
aI1472
aI1767
aI2046
aI111
aI2833
aI3576
aI605
aI3257
aI3330
aI974
aI1031
aa(lp793
I1451
aI548
aI3475
aI1902
aI3178
aI2652
aI3170
aI2636
aI361
aI2224
aI1084
aI1031
aa(lp794
I1451
aI3459
aI1876
aI2470
aI876
aI2514
aI171
aI3320
aI3022
aI3293
aI955
aI1031
aa(lp795
I1451
aI1523
aI1183
aI620
aI844
aI3104
aI3505
aI3569
aI2546
aI2434
aI971
aI1031
aa(lp796
I1451
aI2468
aI690
aI623
aI1298
aI2877
aI3534
aI2587
aI368
aI2226
aI1125
aI1031
aa(lp797
I1451
aI1804
aI3473
aI562
aI325
aI254
aI2918
aI3083
aI2724
aI2007
aI1129
aI1031
aa(lp798
I1451
aI1435
aI1767
aI2118
aI1334
aI251
aI270
aI2613
aI2549
aI2230
aI1121
aI1031
aa(lp799
I1451
aI1831
aI1708
aI2362
aI876
aI2865
aI2972
aI1240
aI2746
aI576
aI131
aI1031
aa(lp800
I1451
aI3454
aI732
aI2483
aI1309
aI2819
aI2661
aI32
aI994
aI1031
aa(lp801
I1451
aI1687
aI405
aI3485
aI3185
aI2869
aI2719
aI2439
aI2734
aI2460
aI1093
aI1031
aa(lp802
I1451
aI1616
aI729
aI1661
aI2270
aI2812
aI161
aI427
aI2749
aI2182
aI983
aI1031
aa(lp803
I1451
aI3449
aI641
aI1905
aI1310
aI2862
aI3008
aI3542
aI1101
aI1031
aa(lp804
I1451
aI2084
aI1863
aI562
aI3279
aI260
aI2669
aI2159
aI2554
aI2451
aI1061
aI1031
aa(lp805
I1451
aI1566
aI3469
aI3433
aI145
aI2819
aI3533
aI163
aI3017
aI2188
aI1010
aI1031
aa(lp806
I1451
aI642
aI1765
aI3413
aI1377
aI2866
aI3160
aI897
aI367
aI2205
aI970
aI1031
aa(lp807
I1451
aI1670
aI1716
aI2053
aI1334
aI2867
aI3215
aI2434
aI190
aI3225
aI1029
aI1031
aa(lp808
I1451
aI792
aI1756
aI2023
aI1313
aI3496
aI224
aI173
aI2751
aI510
aI1060
aI1031
aa(lp809
I1451
aI2049
aI1758
aI2117
aI168
aI3175
aI2783
aI3254
aI3559
aI3293
aI994
aI1031
aa(lp810
I1451
aI1693
aI724
aI2129
aI3187
aI2395
aI220
aI3072
aI3033
aI2007
aI1030
aI1031
aa(lp811
I1451
aI2086
aI2124
aI2264
aI877
aI2823
aI3150
aI3058
aI2757
aI578
aI1106
aI1031
aa(lp812
I1451
aI764
aI2254
aI3482
aI1275
aI2882
aI3090
aI3334
aI2758
aI491
aI987
aI1031
aa(lp813
I1451
aI2058
aI2357
aI3481
aI868
aI2804
aI1248
aI2591
aI2742
aI2219
aI1002
aI1031
aa(lp814
I1451
aI1799
aI1869
aI2121
aI3187
aI249
aI3209
aI2457
aI2730
aI578
aI953
aI1031
aa(lp815
I1451
aI1701
aI86
aI2115
aI3110
aI2651
aI2387
aI2437
aI1051
aI1031
aa(lp816
I1451
aI1801
aI2107
aI2362
aI1265
aI2852
aI229
aI2436
aI188
aI492
aI1127
aI1031
aa(lp817
I1451
aI744
aI676
aI561
aI1346
aI2884
aI301
aI2621
aI2561
aI2003
aI30
aI1031
aa(lp818
I1451
aI1596
aI1744
aI3429
aI1360
aI252
aI219
aI2445
aI2734
aI2216
aI1079
aI1031
aa(lp819
I1451
aI3462
aI1748
aI409
aI2889
aI2859
aI3165
aI2770
aI3257
aI126
aI1090
aI1031
aa(lp820
I1451
aI754
aI1636
aI1882
aI1334
aI2802
aI3119
aI162
aI2740
aI1994
aI1066
aI1031
aa(lp821
I1451
aI3221
aI3383
aI77
aI1367
aI2519
aI2660
aI2771
aI1080
aI1031
aa(lp822
I1451
aI1723
aI676
aI2026
aI1355
aI2872
aI138
aI419
aI981
aI1031
aa(lp823
I1451
aI1700
aI58
aI3426
aI1343
aI2810
aI3191
aI350
aI2561
aI2014
aI1006
aI1031
aa(lp824
I1451
aI1849
aI1769
aI1900
aI837
aI2818
aI2712
aI2625
aI3558
aI2002
aI1078
aI1031
aa(lp825
I1451
aI555
aI3469
aI3431
aI853
aI2847
aI228
aI2621
aI2737
aI2187
aI1012
aI1031
aa(lp826
I1451
aI1140
aI1746
aI631
aI1306
aI2400
aI2984
aI426
aI1017
aI1031
aa(lp827
I1451
aI815
aI1873
aI1900
aI857
aI2522
aI3362
aI421
aI1115
aI1031
aa(lp828
I1451
aI2244
aI2113
aI1890
aI1333
aI6
aI2705
aI2512
aI2738
aI2444
aI1044
aI1031
aa(lp829
I1451
aI749
aI1811
aI1888
aI1261
aI2405
aI1256
aI426
aI95
aI3286
aI1047
aI1031
aa(lp830
I1451
aI798
aI1186
aI720
aI2888
aI2809
aI2712
aI1974
aI2556
aI3064
aI958
aI1031
aa(lp831
I1451
aI646
aI3382
aI2363
aI2
aI2644
aI3124
aI2437
aI1002
aI1031
aa(lp832
I1451
aI758
aI923
aI1907
aI1319
aI2344
aI275
aI354
aI3025
aI3537
aI1004
aI1031
aa(lp833
I1451
aI1682
aI727
aI1888
aI3624
aI2809
aI3164
aI3537
aI1006
aI1031
aa(lp834
I1451
aI2076
aI2124
aI2120
aI1312
aI2824
aI231
aI3248
aI1117
aI1031
aa(lp835
I1451
aI1569
aI1759
aI2126
aI3487
aI2813
aI320
aI3542
aI2737
aI2204
aI3545
aI1031
aa(lp836
I1451
aI1137
aI3471
aI1661
aI1374
aI2834
aI2702
aI2418
aI1062
aI1031
aa(lp837
I1451
aI550
aI55
aI561
aI147
aI2822
aI1250
aI278
aI3013
aI3305
aI1022
aI1031
aa(lp838
I1451
aI1537
aI2251
aI2484
aI1350
aI381
aI2994
aI2616
aI2725
aI503
aI1085
aI1031
aa(lp839
I1451
aI754
aI1865
aI409
aI1309
aI2821
aI3114
aI1200
aI194
aI2169
aI953
aI1031
aa(lp840
I1451
aI556
aI1763
aI1897
aI843
aI260
aI2796
aI3086
aI2754
aI105
aI1019
aI1031
aa(lp841
I1451
aI1581
aI2480
aI2265
aI1285
aI2843
aI3094
aI2441
aI364
aI2015
aI1124
aI1031
aa(lp842
I1451
aI1575
aI1857
aI2116
aI1374
aI2813
aI3000
aI2459
aI1032
aI1031
aa(lp843
I1451
aI1684
aI1747
aI623
aI850
aI3607
aI3375
aI341
aI360
aI2192
aI1083
aI1031
aa(lp844
I1451
aI1845
aI2111
aI53
aI1258
aI2873
aI3100
aI2412
aI1099
aI1031
aa(lp845
I1451
aI944
aI2354
aI1655
aI1282
aI2824
aI2894
aI3069
aI1075
aI1031
aa(lp846
I1451
aI1835
aI2358
aI1889
aI3623
aI2528
aI3127
aI340
aI3035
aI1056
aI1099
aI1031
aa(lp847
I1451
aI82
aI2106
aI561
aI848
aI2870
aI3112
aI2437
aI3284
aI2236
aI3249
aI1031
aa(lp848
I1451
aI1780
aI3386
aI553
aI1299
aI2401
aI3205
aI1247
aI282
aI2193
aI994
aI1031
aa(lp849
I1451
aI2087
aI3465
aI2025
aI1299
aI2854
aI208
aI3349
aI1035
aI1031
aa(lp850
I1451
aI1563
aI1859
aI1892
aI853
aI442
aI2953
aI894
aI2737
aI2222
aI1101
aI1031
aa(lp851
I1451
aI804
aI1762
aI1886
aI2368
aI2855
aI3159
aI2332
aI3016
aI2220
aI1010
aI1031
aa(lp852
I1451
aI3443
aI1754
aI630
aI1332
aI2816
aI2702
aI3248
aI3030
aI1668
aI978
aI1031
aa(lp853
I1451
aI1435
aI2105
aI2265
aI3106
aI2872
aI2926
aI1941
aI290
aI3075
aI1017
aI1031
aa(lp854
I1451
aI3217
aI638
aI2115
aI1261
aI2522
aI3006
aI1945
aI3246
aI511
aI1122
aI1031
aa(lp855
I1451
aI1448
aI1871
aI2363
aI1335
aI2875
aI229
aI3240
aI190
aI3288
aI971
aI1031
aa(lp856
I1451
aI2066
aI691
aI2142
aI1354
aI2845
aI302
aI2420
aI2747
aI3289
aI1104
aI1031
aa(lp857
I1451
aI1574
aI1755
aI2360
aI869
aI253
aI2799
aI1941
aI3014
aI2180
aI970
aI1031
aa(lp858
I1451
aI762
aI2357
aI2470
aI836
aI3174
aI2931
aI180
aI3047
aI2229
aI1082
aI1031
aa(lp859
I1451
aI1494
aI3475
aI2262
aI1311
aI2342
aI2790
aI3063
aI985
aI1031
aa(lp860
I1451
aI3443
aI1812
aI559
aI1356
aI2405
aI2389
aI2567
aI2766
aI2432
aI1005
aI1031
aa(lp861
I1451
aI3397
aI1708
aI3412
aI854
aI243
aI2798
aI388
aI3344
aI2348
aI1088
aI1031
aa(lp862
I1451
aI1492
aI926
aI1898
aI3188
aI2868
aI165
aI2437
aI2746
aI3272
aI1099
aI1031
aa(lp863
I1451
aI556
aI1635
aI720
aI1345
aI2836
aI224
aI2422
aI3037
aI2179
aI1119
aI1031
aa(lp864
I1451
aI1465
aI726
aI567
aI840
aI2864
aI2982
aI2779
aI2749
aI2345
aI1029
aI1031
aa(lp865
I1451
aI803
aI1814
aI3415
aI862
aI386
aI2799
aI3058
aI362
aI2177
aI1000
aI1031
aa(lp866
I1451
aI2244
aI1714
aI2262
aI1310
aI2519
aI3126
aI1209
aI2724
aI581
aI973
aI1031
aa(lp867
I1451
aI1626
aI3472
aI2131
aI1344
aI2343
aI2905
aI2422
aI190
aI108
aI1112
aI1031
aa(lp868
I1451
aI1823
aI2113
aI2028
aI1365
aI244
aI2539
aI3084
aI1068
aI1031
aa(lp869
I1451
aI810
aI2108
aI3433
aI1258
aI2815
aI2897
aI3080
aI3302
aI2002
aI1128
aI1031
aa(lp870
I1451
aI1618
aI1767
aI921
aI1373
aI2399
aI3169
aI3089
aI282
aI423
aI1048
aI1031
aa(lp871
I1451
aI1471
aI727
aI2041
aI3111
aI244
aI2956
aI3079
aI1112
aI1031
aa(lp872
I1451
aI1729
aI1753
aI1904
aI1369
aI2832
aI2995
aI2161
aI3283
aI2221
aI1411
aI1031
aa(lp873
I1451
aI697
aI638
aI2028
aI3420
aI2869
aI2713
aI388
aI3020
aI3225
aI1050
aI1031
aa(lp874
I1451
aI1614
aI1876
aI3425
aI1331
aI2868
aI3142
aI3348
aI2754
aI2198
aI987
aI1031
aa(lp875
I1451
aI1562
aI1709
aI2121
aI1261
aI437
aI3378
aI2411
aI1105
aI1031
aa(lp876
I1451
aI1531
aI2110
aI53
aI1337
aI3496
aI2898
aI2566
aI3284
aI3074
aI956
aI1031
aa(lp877
I1451
aI1562
aI3470
aI1901
aI844
aI2404
aI202
aI2423
aI2733
aI2233
aI959
aI1031
aa(lp878
I1451
aI3397
aI2255
aI2484
aI1285
aI265
aI3153
aI2330
aI362
aI2190
aI999
aI1031
aa(lp879
I1451
aI660
aI925
aI2030
aI2269
aI330
aI2790
aI1232
aI2768
aI433
aI993
aI1031
aa(lp880
I1451
aI1849
aI1860
aI716
aI862
aI2866
aI2896
aI2615
aI2736
aI2216
aI1052
aI1031
aa(lp881
I1451
aI1547
aI725
aI2366
aI3110
aI3182
aI236
aI3071
aI997
aI1031
aa(lp882
I1451
aI1414
aI1876
aI2117
aI3420
aI2342
aI2783
aI2623
aI3037
aI3079
aI983
aI1031
aa(lp883
I1451
aI777
aI732
aI2362
aI2486
aI3495
aI2947
aI414
aI1010
aI1031
aa(lp884
I1451
aI1671
aI1813
aI2018
aI1292
aI438
aI2953
aI2455
aI372
aI2001
aI978
aI1031
aa(lp885
I1451
aI1846
aI2356
aI2017
aI1354
aI2804
aI3159
aI2427
aI3042
aI3304
aI1067
aI1031
aa(lp886
I1451
aI1799
aI2108
aI2040
aI111
aI2861
aI2893
aI3330
aI1087
aI1031
aa(lp887
I1451
aI1774
aI2357
aI2134
aI874
aI2869
aI2506
aI2421
aI2729
aI3288
aI1083
aI1031
aa(lp888
I1451
aI3399
aI3465
aI2117
aI1308
aI251
aI3376
aI3237
aI1013
aI1031
aa(lp889
I1451
aI1464
aI55
aI2039
aI3491
aI2869
aI2972
aI3573
aI3192
aI3074
aI958
aI1031
aa(lp890
I1451
aI1430
aI1746
aI72
aI1360
aI2865
aI214
aI2628
aI2552
aI2200
aI1048
aI1031
aa(lp891
I1451
aI1137
aI1643
aI3413
aI3624
aI2519
aI2797
aI429
aI2549
aI502
aI30
aI1031
aa(lp892
I1451
aI2075
aI693
aI616
aI2369
aI3175
aI2794
aI909
aI2747
aI2462
aI1106
aI1031
aa(lp893
I1451
aI1602
aI1742
aI623
aI1327
aI2873
aI2781
aI419
aI3044
aI2236
aI994
aI1031
aa(lp894
I1451
aI1619
aI3380
aI3424
aI2889
aI2816
aI18
aI1956
aI362
aI2771
aI131
aI1031
aa(lp895
I1451
aI743
aI1711
aI625
aI1311
aI439
aI3094
aI2568
aI2750
aI517
aI1132
aI1031
aa(lp896
I1451
aI791
aI727
aI2472
aI1299
aI2522
aI2659
aI433
aI1019
aI1031
aa(lp897
I1451
aI2088
aI1769
aI531
aI1283
aI2871
aI3113
aI2331
aI294
aI2000
aI960
aI1031
aa(lp898
I1451
aI1554
aI1179
aI2141
aI1377
aI240
aI2786
aI419
aI2555
aI2218
aI1094
aI1031
aa(lp899
I1451
aI1841
aI2109
aI2038
aI1371
aI2808
aI213
aI519
aI186
aI506
aI1078
aI1031
aa(lp900
I1451
aI1500
aI1859
aI2483
aI2369
aI254
aI3277
aI1953
aI2731
aI2200
aI957
aI1031
aa(lp901
I1451
aI1519
aI3383
aI565
aI1270
aI262
aI3372
aI2572
aI3031
aI2437
aI1049
aI1031
aa(lp902
I1451
aI651
aI1766
aI1887
aI1325
aI2807
aI234
aI2771
aI3559
aI575
aI1033
aI1031
aa(lp903
I1451
aI3443
aI1815
aI77
aI3617
aI251
aI3364
aI3255
aI2736
aI2460
aI1411
aI1031
aa(lp904
I1451
aI541
aI670
aI559
aI851
aI2805
aI2977
aI2635
aI3298
aI3066
aI986
aI1031
aa(lp905
I1451
aI747
aI1871
aI3427
aI1259
aI2825
aI2655
aI340
aI3043
aI2456
aI3543
aI1031
aa(lp906
I1451
aI1829
aI2123
aI720
aI1287
aI438
aI2944
aI2160
aI3046
aI423
aI972
aI1031
aa(lp907
I1451
aI1134
aI1644
aI3410
aI2485
aI2860
aI2698
aI3072
aI1105
aI1031
aa(lp908
I1451
aI770
aI1647
aI2136
aI1345
aI3103
aI3146
aI3333
aI3559
aI504
aI971
aI1031
aa(lp909
I1451
aI1453
aI1812
aI2040
aI3281
aI3180
aI2921
aI335
aI2748
aI2431
aI1097
aI1031
aa(lp910
I1451
aI664
aI1869
aI2038
aI1290
aI2403
aI3148
aI3356
aI188
aI413
aI1102
aI1031
aa(lp911
I1451
aI806
aI1639
aI404
aI3625
aI243
aI224
aI3083
aI1123
aI1031
aa(lp912
I1451
aI1145
aI1721
aI2140
aI1268
aI2878
aI237
aI122
aI26
aI2185
aI3228
aI1031
aa(lp913
I1451
aI771
aI652
aI2260
aI1372
aI241
aI2695
aI2579
aI2767
aI2455
aI1003
aI1031
aa(lp914
I1451
aI1612
aI1640
aI3419
aI1349
aI2839
aI220
aI605
aI287
aI122
aI1120
aI1031
aa(lp915
I1451
aI3455
aI2356
aI3413
aI1317
aI3612
aI2800
aI1936
aI359
aI581
aI1024
aI1031
aa(lp916
I1451
aI1487
aI1764
aI921
aI3624
aI385
aI3574
aI3073
aI3029
aI1998
aI1092
aI1031
aa(lp917
I1451
aI1413
aI1706
aI557
aI1346
aI437
aI3208
aI2443
aI371
aI2213
aI1017
aI1031
aa(lp918
I1451
aI1485
aI672
aI487
aI1317
aI2836
aI2664
aI2615
aI3046
aI3068
aI1080
aI1031
aa(lp919
I1451
aI1776
aI1764
aI2260
aI1261
aI2523
aI3143
aI2618
aI2726
aI2426
aI966
aI1031
aa(lp920
I1451
aI1725
aI1645
aI2134
aI884
aI330
aI3168
aI180
aI963
aI1031
aa(lp921
I1451
aI773
aI1182
aI624
aI881
aI2832
aI3598
aI2605
aI3032
aI2006
aI1033
aI1031
aa(lp922
I1451
aI1796
aI652
aI1894
aI2888
aI250
aI3115
aI2630
aI3036
aI2211
aI1104
aI1031
aa(lp923
I1451
aI1722
aI1712
aI1899
aI1365
aI2862
aI316
aI3253
aI1028
aI1031
aa(lp924
I1451
aI1805
aI1746
aI3411
aI1264
aI2803
aI316
aI1952
aI2562
aI2241
aI30
aI1031
aa(lp925
I1451
aI789
aI2113
aI1891
aI3185
aI387
aI2967
aI397
aI3344
aI3319
aI1036
aI1031
aa(lp926
I1451
aI65
aI3473
aI2034
aI485
aI2863
aI316
aI3059
aI1045
aI1031
aa(lp927
I1451
aI1588
aI1818
aI1661
aI1323
aI2400
aI2906
aI2612
aI2550
aI2220
aI1111
aI1031
aa(lp928
I1451
aI1447
aI732
aI2266
aI1332
aI5
aI2697
aI2382
aI197
aI2006
aI1076
aI1031
aa(lp929
I1451
aI1599
aI1654
aI568
aI1319
aI3609
aI2800
aI3068
aI3028
aI2000
aI1038
aI1031
aa(lp930
I1451
aI1699
aI2358
aI1662
aI1371
aI2877
aI2906
aI353
aI2758
aI499
aI981
aI1031
aa(lp931
I1451
aI1737
aI1875
aI455
aI836
aI259
aI3505
aI2594
aI2543
aI130
aI3252
aI1031
aa(lp932
I1451
aI2104
aI2113
aI919
aI1316
aI2823
aI2704
aI1242
aI3049
aI2437
aI1035
aI1031
aa(lp933
I1451
aI1526
aI1186
aI631
aI1269
aI2863
aI3149
aI2432
aI2723
aI105
aI1064
aI1031
aa(lp934
I1451
aI1519
aI1718
aI1900
aI1354
aI2822
aI3368
aI348
aI3021
aI2431
aI957
aI1031
aa(lp935
I1451
aI2076
aI2251
aI1904
aI1325
aI2515
aI2941
aI893
aI2727
aI493
aI1064
aI1031
aa(lp936
I1451
aI2089
aI2123
aI560
aI1312
aI2645
aI87
aI423
aI195
aI3233
aI1005
aI1031
aa(lp937
I1451
aI802
aI3469
aI2472
aI1321
aI2806
aI2703
aI2432
aI193
aI1998
aI1130
aI1031
aa(lp938
I1451
aI1433
aI1859
aI1188
aI3177
aI3104
aI3602
aI2439
aI282
aI497
aI1019
aI1031
aa(lp939
I1451
aI3450
aI677
aI1908
aI2653
aI386
aI44
aI2607
aI3013
aI3133
aI1010
aI1031
aa(lp940
I1451
aI815
aI1754
aI3412
aI3281
aI3101
aI3117
aI180
aI979
aI1031
aa(lp941
I1451
aI2091
aI1716
aI2470
aI1274
aI2398
aI319
aI2780
aI2747
aI3226
aI3268
aI1031
aa(lp942
I1451
aI2463
aI1186
aI2264
aI1377
aI2519
aI3120
aI349
aI3045
aI33
aI123
aI1031
aa(lp943
I1451
aI3399
aI1762
aI2120
aI1
aI2834
aI3092
aI3053
aI190
aI500
aI994
aI1031
aa(lp944
I1451
aI64
aI693
aI1891
aI1368
aI2808
aI323
aI3336
aI2559
aI430
aI1009
aI1031
aa(lp945
I1451
aI1433
aI1642
aI2484
aI1325
aI327
aI3162
aI430
aI1107
aI1031
aa(lp946
I1451
aI2245
aI1653
aI1658
aI836
aI2395
aI2782
aI3059
aI1104
aI1031
aa(lp947
I1451
aI1802
aI667
aI2032
aI865
aI3104
aI3155
aI1944
aI3028
aI32
aI967
aI1031
aa(lp948
I1451
aI2463
aI2105
aI628
aI865
aI2652
aI139
aI1931
aI3052
aI3074
aI1064
aI1031
aa(lp949
I1451
aI945
aI1719
aI2115
aI1339
aI3610
aI3121
aI3131
aI289
aI2345
aI1412
aI1031
aa(lp950
I1451
aI1585
aI1742
aI1662
aI144
aI2868
aI2999
aI3059
aI361
aI2239
aI1013
aI1031
aa(lp951
I1451
aI1475
aI641
aI3410
aI1297
aI2343
aI1252
aI1235
aI164
aI3227
aI3546
aI1031
aa(lp952
I1451
aI3393
aI1817
aI2264
aI861
aI3605
aI3507
aI174
aI2561
aI2235
aI979
aI1031
aa(lp953
I1451
aI1588
aI637
aI621
aI1260
aI2843
aI3365
aI356
aI287
aI2426
aI1022
aI1031
aa(lp954
I1451
aI1679
aI1870
aI3418
aI111
aI2645
aI3379
aI163
aI292
aI2170
aI1119
aI1031
aa(lp955
I1451
aI1554
aI456
aI3483
aI1298
aI2868
aI3507
aI2446
aI3035
aI2345
aI1005
aI1031
aa(lp956
I1451
aI2072
aI690
aI2258
aI1275
aI7
aI2998
aI414
aI1089
aI1031
aa(lp957
I1451
aI758
aI1859
aI2046
aI1264
aI438
aI140
aI3084
aI1129
aI1031
aa(lp958
I1451
aI2246
aI923
aI404
aI856
aI3496
aI3211
aI2421
aI2723
aI3226
aI1052
aI1031
aa(lp959
I1451
aI62
aI1713
aI2019
aI3188
aI439
aI887
aI3321
aI1023
aI1031
aa(lp960
I1451
aI757
aI1641
aI719
aI1379
aI3180
aI3190
aI2614
aI2751
aI3081
aI1002
aI1031
aa(lp961
I1451
aI648
aI3380
aI2261
aI1331
aI2833
aI3155
aI1228
aI285
aI180
aI1012
aI1031
aa(lp962
I1451
aI2058
aI1643
aI2366
aI868
aI146
aI2697
aI3566
aI3022
aI3260
aI1008
aI1031
aa(lp963
I1451
aI2463
aI1765
aI1900
aI3621
aI2882
aI2388
aI2434
aI2724
aI2194
aI1083
aI1031
aa(lp964
I1451
aI709
aI2254
aI2128
aI1296
aI2524
aI2973
aI3315
aI972
aI1031
aa(lp965
I1451
aI1443
aI1748
aI2133
aI2267
aI385
aI2928
aI910
aI2546
aI421
aI1046
aI1031
aa(lp966
I1451
aI776
aI1880
aI3482
aI1279
aI2523
aI3158
aI3356
aI2753
aI2425
aI1067
aI1031
aa(lp967
I1451
aI2089
aI1854
aI1882
aI3488
aI2803
aI20
aI3359
aI3061
aI2223
aI964
aI1031
aa(lp968
I1451
aI749
aI1854
aI3415
aI147
aI2860
aI316
aI1932
aI3555
aI2439
aI1061
aI1031
aa(lp969
I1451
aI1447
aI1875
aI2363
aI1273
aI2869
aI2510
aI2416
aI290
aI2181
aI964
aI1031
aa(lp970
I1451
aI754
aI668
aI535
aI847
aI2879
aI1254
aI2422
aI3560
aI2348
aI1112
aI1031
aa(lp971
I1451
aI769
aI2114
aI558
aI2367
aI3610
aI161
aI2585
aI3047
aI977
aI1110
aI1031
aa(lp972
I1451
aI808
aI1871
aI2258
aI1290
aI2818
aI219
aI1242
aI359
aI3348
aI1061
aI1031
aa(lp973
I1451
aI1419
aI2254
aI2056
aI856
aI2652
aI319
aI2157
aI2768
aI3063
aI3267
aI1031
aa(lp974
I1451
aI1428
aI2254
aI617
aI1334
aI2852
aI298
aI429
aI2735
aI2187
aI1127
aI1031
aa(lp975
I1451
aI1686
aI1873
aI532
aI1305
aI256
aI3602
aI1936
aI2556
aI3085
aI1130
aI1031
aa(lp976
I1451
aI2351
aI728
aI1905
aI1275
aI2860
aI2673
aI2418
aI1101
aI1031
aa(lp977
I1451
aI556
aI2481
aI625
aI1295
aI2514
aI2655
aI2414
aI2733
aI3241
aI1010
aI1031
aa(lp978
I1451
aI747
aI1767
aI1188
aI1300
aI2820
aI2669
aI3071
aI2743
aI2002
aI1071
aI1031
aa(lp979
I1451
aI1453
aI1864
aI563
aI1280
aI2884
aI2781
aI895
aI2768
aI3074
aI1073
aI1031
aa(lp980
I1451
aI1501
aI1767
aI2016
aI1285
aI2841
aI3149
aI1932
aI3013
aI501
aI1011
aI1031
aa(lp981
I1451
aI1439
aI1766
aI1882
aI1292
aI2804
aI2892
aI2376
aI2738
aI2191
aI1049
aI1031
aa(lp982
I1451
aI1440
aI2109
aI2035
aI1294
aI2522
aI3151
aI593
aI3031
aI1996
aI1039
aI1031
aa(lp983
I1451
aI2244
aI673
aI72
aI837
aI2814
aI3165
aI2631
aI3559
aI3053
aI1411
aI1031
aa(lp984
I1451
aI1419
aI1636
aI718
aI1276
aI3497
aI2720
aI397
aI2552
aI2188
aI1090
aI1031
aa(lp985
I1451
aI457
aI1643
aI2365
aI883
aI2862
aI2990
aI1246
aI3039
aI3349
aI1123
aI1031
aa(lp986
I1451
aI3444
aI3380
aI3426
aI861
aI2866
aI229
aI2335
aI2767
aI424
aI3251
aI1031
aa(lp987
I1451
aI1480
aI1650
aI1656
aI861
aI3496
aI2998
aI2602
aI2768
aI180
aI995
aI1031
aa(lp988
I1451
aI457
aI3466
aI618
aI1321
aI169
aI273
aI3065
aI3048
aI505
aI993
aI1031
aa(lp989
I1451
aI1578
aI674
aI70
aI1279
aI2861
aI275
aI3320
aI1083
aI1031
aa(lp990
I1451
aI697
aI1639
aI1886
aI2486
aI3497
aI2699
aI182
aI1068
aI1031
aa(lp991
I1451
aI785
aI638
aI2034
aI1344
aI2880
aI310
aI32
aI1044
aI1031
aa(lp992
I1451
aI1527
aI670
aI628
aI1297
aI2528
aI19
aI3332
aI3039
aI494
aI3545
aI1031
aa(lp993
I1451
aI3403
aI2359
aI2053
aI1275
aI2399
aI216
aI1960
aI197
aI2227
aI3251
aI1031
aa(lp994
I1451
aI1553
aI1747
aI3433
aI1327
aI2814
aI2664
aI344
aI2550
aI3057
aI1088
aI1031
aa(lp995
I1451
aI1793
aI1869
aI557
aI1332
aI2818
aI2979
aI427
aI1079
aI1031
aa(lp996
I1451
aI1679
aI1873
aI2128
aI1362
aI3174
aI3000
aI3076
aI1078
aI1031
aa(lp997
I1451
aI818
aI2252
aI1903
aI3487
aI2857
aI889
aI3063
aI2728
aI109
aI1108
aI1031
aa(lp998
I1451
aI1418
aI1873
aI2119
aI879
aI240
aI3353
aI1196
aI3025
aI3053
aI969
aI1031
aa(lp999
I1451
aI816
aI1635
aI2257
aI3622
aI382
aI2665
aI1931
aI360
aI412
aI1412
aI1031
aa(lp1000
I1451
aI701
aI2358
aI1881
aI886
aI148
aI2900
aI1961
aI2549
aI2006
aI1077
aI1031
aa.