(lp0
(lp1
I1451
aI809
aI1814
aI563
aI454
aI2407
aI2718
aI2412
aI1116
aI1031
aa(lp2
I1451
aI1527
aI1854
aI487
aI1377
aI2398
aI2710
aI1214
aI181
aI2169
aI1101
aI1031
aa(lp3
I1451
aI2094
aI728
aI2045
aI870
aI3174
aI3368
aI2338
aI2728
aI3226
aI1071
aI1031
aa(lp4
I1451
aI3216
aI1771
aI2128
aI1360
aI3174
aI321
aI1978
aI2758
aI2415
aI1020
aI1031
aa(lp5
I1451
aI2082
aI1712
aI1882
aI1263
aI3181
aI226
aI3537
aI2743
aI2228
aI972
aI1031
aa(lp6
I1451
aI2468
aI1869
aI2259
aI3111
aI250
aI2393
aI2437
aI1067
aI1031
aa(lp7
I1451
aI1466
aI1650
aI52
aI3280
aI5
aI887
aI340
aI362
aI3253
aI1015
aI1031
aa(lp8
I1451
aI1705
aI1741
aI70
aI3423
aI2812
aI2699
aI1977
aI2762
aI2432
aI1087
aI1031
aa(lp9
I1451
aI746
aI722
aI2363
aI2268
aI2832
aI210
aI1239
aI2557
aI2442
aI1051
aI1031
aa(lp10
I1451
aI789
aI3471
aI2039
aI1281
aI2515
aI171
aI2588
aI3041
aI2417
aI1066
aI1031
aa(lp11
I1451
aI792
aI2253
aI2263
aI1365
aI2825
aI3512
aI1949
aI193
aI2424
aI3546
aI1031
aa(lp12
I1451
aI543
aI695
aI2025
aI145
aI2396
aI3161
aI2621
aI3256
aI2003
aI1092
aI1031
aa(lp13
I1451
aI775
aI633
aI2056
aI1367
aI385
aI2900
aI425
aI2765
aI2241
aI1105
aI1031
aa(lp14
I1451
aI2099
aI638
aI53
aI2888
aI148
aI271
aI2417
aI1071
aI1031
aa(lp15
I1451
aI3457
aI2357
aI1660
aI1330
aI2824
aI2892
aI2421
aI996
aI1031
aa(lp16
I1451
aI1422
aI2106
aI1893
aI3487
aI2870
aI3503
aI603
aI290
aI2453
aI1019
aI1031
aa(lp17
I1451
aI2082
aI693
aI2366
aI2486
aI2810
aI3158
aI418
aI2726
aI3227
aI968
aI1031
aa(lp18
I1451
aI1834
aI687
aI1887
aI842
aI250
aI230
aI3082
aI991
aI1031
aa(lp19
I1451
aI737
aI1818
aI1657
aI1285
aI2649
aI234
aI278
aI989
aI1031
aa(lp20
I1451
aI1145
aI2124
aI3476
aI1345
aI381
aI3191
aI3538
aI3268
aI1031
aa(lp21
I1451
aI3392
aI1880
aI1898
aI853
aI2855
aI3577
aI1955
aI3061
aI2459
aI980
aI1031
aa(lp22
I1451
aI2098
aI634
aI565
aI1359
aI2829
aI2981
aI1958
aI2552
aI508
aI1062
aI1031
aa(lp23
I1451
aI684
aI1751
aI404
aI1301
aI260
aI2960
aI2422
aI359
aI3286
aI1072
aI1031
aa(lp24
I1451
aI710
aI1185
aI1897
aI865
aI250
aI2721
aI2634
aI366
aI511
aI1046
aI1031
aa(lp25
I1451
aI1621
aI1757
aI1909
aI1306
aI2845
aI1257
aI2421
aI2743
aI496
aI1016
aI1031
aa(lp26
I1451
aI759
aI1645
aI1910
aI1378
aI2828
aI2926
aI1226
aI3031
aI2234
aI1065
aI1031
aa(lp27
I1451
aI750
aI1858
aI560
aI1303
aI2865
aI3506
aI2435
aI1088
aI1031
aa(lp28
I1451
aI1584
aI1871
aI2141
aI1337
aI2516
aI1255
aI2162
aI2731
aI163
aI1079
aI1031
aa(lp29
I1451
aI809
aI1741
aI1658
aI882
aI2396
aI3095
aI342
aI3555
aI2440
aI982
aI1031
aa(lp30
I1451
aI797
aI638
aI1657
aI1371
aI2855
aI391
aI1193
aI3194
aI3059
aI1062
aI1031
aa(lp31
I1451
aI790
aI2252
aI2134
aI1260
aI2397
aI215
aI388
aI2555
aI178
aI955
aI1031
aa(lp32
I1451
aI768
aI687
aI567
aI1280
aI2834
aI2924
aI3071
aI2766
aI2175
aI1106
aI1031
aa(lp33
I1451
aI1578
aI1851
aI533
aI849
aI2518
aI151
aI97
aI3554
aI458
aI1031
aI1031
aa(lp34
I1451
aI654
aI1765
aI1656
aI2270
aI2833
aI2388
aI2772
aI1090
aI1031
aa(lp35
I1451
aI1605
aI1762
aI569
aI2270
aI2870
aI203
aI2587
aI2555
aI3272
aI1101
aI1031
aa(lp36
I1451
aI1729
aI695
aI1900
aI1
aI2810
aI392
aI175
aI1106
aI1031
aa(lp37
I1451
aI1785
aI86
aI1660
aI1340
aI2830
aI2658
aI3538
aI2766
aI2198
aI963
aI1031
aa(lp38
I1451
aI1820
aI687
aI3412
aI3625
aI2399
aI3125
aI2378
aI3559
aI2212
aI1126
aI1031
aa(lp39
I1451
aI1618
aI1744
aI2263
aI1315
aI251
aI2666
aI1951
aI3284
aI2009
aI1060
aI1031
aa(lp40
I1451
aI1494
aI1645
aI1659
aI1326
aI2882
aI2789
aI2454
aI3193
aI2181
aI3548
aI1031
aa(lp41
I1451
aI801
aI1860
aI2033
aI836
aI2832
aI216
aI415
aI2757
aI3553
aI1063
aI1031
aa(lp42
I1451
aI1806
aI1771
aI717
aI871
aI2885
aI2934
aI598
aI2561
aI3553
aI1082
aI1031
aa(lp43
I1451
aI2048
aI2113
aI409
aI1262
aI251
aI2670
aI179
aI1080
aI1031
aa(lp44
I1451
aI815
aI1184
aI3433
aI3109
aI2874
aI2980
aI2451
aI3047
aI2215
aI965
aI1031
aa(lp45
I1451
aI3459
aI1756
aI1898
aI1264
aI2395
aI2387
aI430
aI1083
aI1031
aa(lp46
I1451
aI66
aI1878
aI2053
aI1349
aI2863
aI3112
aI331
aI2723
aI581
aI1029
aI1031
aa(lp47
I1451
aI1617
aI688
aI531
aI1267
aI3103
aI3005
aI1953
aI2737
aI2201
aI3548
aI1031
aa(lp48
I1451
aI752
aI1851
aI1887
aI2369
aI2872
aI2510
aI2444
aI2761
aI581
aI1105
aI1031
aa(lp49
I1451
aI1594
aI3466
aI626
aI1312
aI2396
aI2951
aI2431
aI1092
aI1031
aa(lp50
I1451
aI651
aI2123
aI627
aI857
aI2873
aI2507
aI2451
aI3559
aI3259
aI983
aI1031
aa(lp51
I1451
aI3393
aI652
aI630
aI2371
aI442
aI3138
aI3074
aI2750
aI2230
aI1066
aI1031
aa(lp52
I1451
aI743
aI922
aI2136
aI3625
aI2867
aI2659
aI397
aI121
aI2218
aI952
aI1031
aa(lp53
I1451
aI742
aI1745
aI2132
aI885
aI260
aI2676
aI2338
aI189
aI2462
aI3267
aI1031
aa(lp54
I1451
aI3441
aI2356
aI486
aI1304
aI387
aI2925
aI2331
aI3036
aI3080
aI1064
aI1031
aa(lp55
I1451
aI1677
aI2105
aI2141
aI3281
aI2871
aI2951
aI2450
aI3246
aI2461
aI1020
aI1031
aa(lp56
I1451
aI1829
aI729
aI2360
aI1343
aI3607
aI2706
aI1937
aI2758
aI2190
aI1085
aI1031
aa(lp57
I1451
aI786
aI1864
aI626
aI1261
aI48
aI2924
aI1210
aI3284
aI2234
aI1074
aI1031
aa(lp58
I1451
aI3448
aI1867
aI2134
aI880
aI2815
aI3144
aI2412
aI371
aI2347
aI982
aI1031
aa(lp59
I1451
aI1516
aI1851
aI558
aI2887
aI245
aI3209
aI2436
aI1072
aI1031
aa(lp60
I1451
aI1414
aI1877
aI2137
aI850
aI3495
aI3353
aI433
aI1073
aI1031
aa(lp61
I1451
aI1140
aI1761
aI2044
aI847
aI2803
aI2966
aI1227
aI3017
aI3067
aI1047
aI1031
aa(lp62
I1451
aI2059
aI1867
aI558
aI1293
aI329
aI377
aI2423
aI1022
aI1031
aa(lp63
I1451
aI2103
aI1642
aI2366
aI1368
aI2401
aI2961
aI2513
aI3031
aI2461
aI1029
aI1031
aa(lp64
I1451
aI1428
aI1184
aI2127
aI873
aI3612
aI2988
aI1951
aI290
aI2229
aI1110
aI1031
aa(lp65
I1451
aI3436
aI3473
aI559
aI1365
aI2403
aI2900
aI1972
aI289
aI2210
aI1093
aI1031
aa(lp66
I1451
aI1455
aI3465
aI3411
aI845
aI2843
aI272
aI2598
aI2759
aI2449
aI1085
aI1031
aa(lp67
I1451
aI3216
aI1742
aI2129
aI238
aI2840
aI215
aI2430
aI1100
aI1031
aa(lp68
I1451
aI1578
aI1712
aI2362
aI2367
aI2823
aI3360
aI113
aI3035
aI135
aI3251
aI1031
aa(lp69
I1451
aI816
aI694
aI2260
aI873
aI245
aI3379
aI3086
aI181
aI3058
aI1101
aI1031
aa(lp70
I1451
aI1732
aI634
aI553
aI3489
aI2851
aI3376
aI3084
aI1073
aI1031
aa(lp71
I1451
aI685
aI675
aI2031
aI1314
aI3613
aI3371
aI2637
aI2553
aI3261
aI1066
aI1031
aa(lp72
I1451
aI797
aI2123
aI1890
aI2270
aI3497
aI2904
aI1975
aI2753
aI2243
aI3545
aI1031
aa(lp73
I1451
aI2068
aI1761
aI2137
aI1350
aI2862
aI3138
aI2437
aI992
aI1031
aa(lp74
I1451
aI655
aI1767
aI1901
aI878
aI2403
aI202
aI2577
aI289
aI3248
aI1112
aI1031
aa(lp75
I1451
aI1568
aI1818
aI1904
aI1285
aI2398
aI203
aI417
aI2769
aI2218
aI983
aI1031
aa(lp76
I1451
aI2092
aI636
aI617
aI1322
aI2857
aI3163
aI1215
aI3301
aI3083
aI1065
aI1031
aa(lp77
I1451
aI2050
aI1854
aI625
aI840
aI3607
aI2673
aI3088
aI188
aI3254
aI1050
aI1031
aa(lp78
I1451
aI1621
aI1749
aI565
aI1375
aI2514
aI2897
aI425
aI971
aI1031
aa(lp79
I1451
aI769
aI727
aI919
aI863
aI2874
aI153
aI2431
aI3014
aI2170
aI1050
aI1031
aa(lp80
I1451
aI554
aI727
aI2139
aI1300
aI3609
aI2944
aI3081
aI3228
aI1031
aa(lp81
I1451
aI2073
aI2482
aI2363
aI1372
aI3497
aI2656
aI2428
aI3013
aI2347
aI1122
aI1031
aa(lp82
I1451
aI1828
aI1648
aI529
aI1325
aI2522
aI2663
aI3072
aI2727
aI1997
aI1052
aI1031
aa(lp83
I1451
aI1435
aI2255
aI3477
aI1307
aI2873
aI161
aI1948
aI2758
aI3240
aI1103
aI1031
aa(lp84
I1451
aI2246
aI2113
aI2139
aI1369
aI2861
aI2950
aI3538
aI3302
aI495
aI970
aI1031
aa(lp85
I1451
aI742
aI691
aI1886
aI147
aI243
aI2939
aI3065
aI1051
aI1031
aa(lp86
I1451
aI1802
aI1851
aI2135
aI1267
aI2883
aI2387
aI3349
aI3023
aI135
aI983
aI1031
aa(lp87
I1451
aI1783
aI1185
aI1895
aI3624
aI2649
aI2713
aI2599
aI2762
aI571
aI971
aI1031
aa(lp88
I1451
aI1424
aI1757
aI1909
aI111
aI3174
aI270
aI2379
aI373
aI3348
aI1092
aI1031
aa(lp89
I1451
aI2093
aI1636
aI2129
aI872
aI2515
aI213
aI3338
aI2561
aI2223
aI1108
aI1031
aa(lp90
I1451
aI1546
aI727
aI2141
aI1289
aI3104
aI2801
aI913
aI3344
aI3083
aI1077
aI1031
aa(lp91
I1451
aI1786
aI1741
aI2470
aI1320
aI2851
aI205
aI907
aI2765
aI3243
aI1059
aI1031
aa(lp92
I1451
aI1421
aI1646
aI2036
aI1344
aI2399
aI2947
aI2772
aI966
aI1031
aa(lp93
I1451
aI1738
aI726
aI563
aI1347
aI266
aI2702
aI2157
aI3257
aI2223
aI1062
aI1031
aa(lp94
I1451
aI1737
aI653
aI720
aI1325
aI2652
aI2510
aI584
aI3016
aI2224
aI992
aI1031
aa(lp95
I1451
aI2070
aI673
aI1882
aI3489
aI2829
aI303
aI3077
aI1039
aI1031
aa(lp96
I1451
aI806
aI1635
aI562
aI850
aI3610
aI2655
aI352
aI290
aI2207
aI997
aI1031
aa(lp97
I1451
aI737
aI3470
aI1910
aI147
aI2843
aI3368
aI1975
aI2740
aI2198
aI971
aI1031
aa(lp98
I1451
aI2061
aI1812
aI2265
aI847
aI2860
aI2782
aI2451
aI3548
aI1031
aa(lp99
I1451
aI1453
aI1758
aI623
aI1277
aI2524
aI3364
aI1243
aI3559
aI2188
aI1016
aI1031
aa(lp100
I1451
aI767
aI1645
aI1910
aI1353
aI3497
aI2788
aI1238
aI181
aI127
aI1084
aI1031
aa(lp101
I1451
aI1529
aI1741
aI2127
aI1280
aI2644
aI2896
aI176
aI3344
aI504
aI821
aI1031
aa(lp102
I1451
aI1136
aI729
aI2484
aI3177
aI2809
aI2973
aI2577
aI2730
aI2423
aI3250
aI1031
aa(lp103
I1451
aI1782
aI1180
aI2024
aI1261
aI2402
aI3368
aI1198
aI3256
aI2006
aI970
aI1031
aa(lp104
I1451
aI3451
aI536
aI2026
aI145
aI252
aI2669
aI2419
aI1105
aI1031
aa(lp105
I1451
aI1566
aI1643
aI2019
aI1322
aI3102
aI3378
aI2589
aI3130
aI3071
aI1003
aI1031
aa(lp106
I1451
aI1439
aI1186
aI3428
aI3489
aI2398
aI2658
aI3566
aI2555
aI2412
aI1079
aI1031
aa(lp107
I1451
aI1457
aI1746
aI561
aI238
aI2400
aI2937
aI3240
aI2748
aI2201
aI979
aI1031
aa(lp108
I1451
aI1549
aI1852
aI2023
aI1278
aI256
aI1251
aI2419
aI1412
aI1031
aa(lp109
I1451
aI3393
aI2356
aI2127
aI844
aI251
aI3005
aI901
aI2740
aI2451
aI1090
aI1031
aa(lp110
I1451
aI741
aI1871
aI2135
aI3625
aI2874
aI3361
aI3075
aI3044
aI1994
aI1017
aI1031
aa(lp111
I1451
aI769
aI639
aI2039
aI3423
aI2874
aI172
aI434
aI3044
aI502
aI1107
aI1031
aa(lp112
I1451
aI1780
aI536
aI531
aI3487
aI2406
aI3357
aI904
aI2542
aI109
aI3329
aI1031
aa(lp113
I1451
aI1688
aI688
aI3418
aI867
aI2824
aI3364
aI2588
aI361
aI2440
aI1123
aI1031
aa(lp114
I1451
aI1781
aI1753
aI3480
aI3108
aI2646
aI166
aI3348
aI1126
aI1031
aa(lp115
I1451
aI734
aI2112
aI2033
aI1367
aI252
aI2673
aI179
aI193
aI109
aI989
aI1031
aa(lp116
I1451
aI702
aI1650
aI1900
aI2371
aI381
aI391
aI2438
aI1089
aI1031
aa(lp117
I1451
aI1837
aI1717
aI1899
aI1295
aI385
aI3123
aI2640
aI3020
aI2169
aI1039
aI1031
aa(lp118
I1451
aI2104
aI1641
aI2129
aI1260
aI253
aI3360
aI426
aI3046
aI3227
aI989
aI1031
aa(lp119
I1451
aI2465
aI635
aI486
aI1376
aI2523
aI170
aI3059
aI293
aI572
aI971
aI1031
aa(lp120
I1451
aI1493
aI1639
aI3485
aI1309
aI3609
aI3278
aI3332
aI289
aI2229
aI1073
aI1031
aa(lp121
I1451
aI1494
aI1813
aI1657
aI3619
aI2399
aI2676
aI2431
aI3012
aI2346
aI1037
aI1031
aa(lp122
I1451
aI786
aI1859
aI2056
aI857
aI2861
aI2385
aI601
aI290
aI2217
aI1111
aI1031
aa(lp123
I1451
aI3459
aI1741
aI2264
aI1277
aI2522
aI231
aI3078
aI2552
aI2349
aI1015
aI1031
aa(lp124
I1451
aI649
aI1816
aI2027
aI873
aI2867
aI3352
aI3083
aI959
aI1031
aa(lp125
I1451
aI1609
aI1649
aI621
aI3281
aI2847
aI3120
aI3348
aI972
aI1031
aa(lp126
I1451
aI1576
aI1873
aI558
aI1296
aI461
aI2976
aI1200
aI2549
aI3078
aI1110
aI1031
aa(lp127
I1451
aI756
aI1871
aI2129
aI3178
aI2528
aI3603
aI1981
aI289
aI2236
aI997
aI1031
aa(lp128
I1451
aI554
aI673
aI624
aI1261
aI329
aI2707
aI2335
aI188
aI2417
aI1089
aI1031
aa(lp129
I1451
aI1732
aI1718
aI2120
aI874
aI2344
aI165
aI1244
aI3014
aI505
aI957
aI1031
aa(lp130
I1451
aI1606
aI633
aI2030
aI147
aI383
aI2936
aI462
aI3051
aI2179
aI967
aI1031
aa(lp131
I1451
aI1571
aI1644
aI1882
aI3619
aI2843
aI443
aI913
aI188
aI2216
aI1002
aI1031
aa(lp132
I1451
aI946
aI1641
aI2039
aI3177
aI2856
aI2677
aI602
aI3557
aI3539
aI1074
aI1031
aa(lp133
I1451
aI3389
aI925
aI3430
aI1294
aI459
aI44
aI415
aI1005
aI1031
aa(lp134
I1451
aI2084
aI632
aI2041
aI883
aI2844
aI3115
aI3569
aI192
aI418
aI1099
aI1031
aa(lp135
I1451
aI1782
aI3468
aI617
aI874
aI2851
aI3094
aI1204
aI2562
aI3320
aI821
aI1031
aa(lp136
I1451
aI1436
aI722
aI3477
aI849
aI262
aI449
aI427
aI2558
aI2233
aI1116
aI1031
aa(lp137
I1451
aI1738
aI926
aI1909
aI1287
aI3504
aI888
aI2443
aI1020
aI1031
aa(lp138
I1451
aI1567
aI1872
aI563
aI1332
aI2839
aI11
aI3080
aI1004
aI1031
aa(lp139
I1451
aI662
aI1654
aI2036
aI1315
aI2857
aI2715
aI3537
aI2766
aI119
aI1109
aI1031
aa(lp140
I1451
aI1623
aI1742
aI716
aI3188
aI2837
aI296
aI278
aI3024
aI2205
aI1062
aI1031
aa(lp141
I1451
aI1483
aI3386
aI2116
aI1
aI2878
aI221
aI3569
aI3246
aI3308
aI1008
aI1031
aa(lp142
I1451
aI3448
aI676
aI620
aI168
aI327
aI167
aI3083
aI3302
aI504
aI1031
aI1031
aa(lp143
I1451
aI1671
aI1876
aI2263
aI1282
aI2395
aI2790
aI3321
aI1046
aI1031
aa(lp144
I1451
aI1452
aI672
aI626
aI1335
aI2802
aI3190
aI3571
aI2542
aI3069
aI968
aI1031
aa(lp145
I1451
aI1678
aI58
aI561
aI1283
aI2832
aI151
aI429
aI30
aI1031
aa(lp146
I1451
aI1677
aI1861
aI2027
aI1303
aI387
aI2890
aI2419
aI3548
aI1031
aa(lp147
I1451
aI3221
aI1860
aI2045
aI147
aI148
aI139
aI3058
aI1098
aI1031
aa(lp148
I1451
aI2353
aI1180
aI3427
aI1369
aI2865
aI2393
aI602
aI2731
aI2226
aI1103
aI1031
aa(lp149
I1451
aI783
aI652
aI3432
aI1298
aI2849
aI3152
aI3066
aI2761
aI108
aI996
aI1031
aa(lp150
I1451
aI1425
aI3468
aI2483
aI871
aI2884
aI172
aI3058
aI1061
aI1031
aa(lp151
I1451
aI2068
aI3383
aI2483
aI1309
aI3176
aI160
aI598
aI2727
aI2187
aI1117
aI1031
aa(lp152
I1451
aI1694
aI3465
aI2031
aI1345
aI2644
aI2958
aI424
aI1026
aI1031
aa(lp153
I1451
aI1807
aI1852
aI2036
aI3625
aI2806
aI2921
aI2416
aI3256
aI2236
aI1016
aI1031
aa(lp154
I1451
aI2058
aI1755
aI718
aI3617
aI2864
aI2661
aI3078
aI3545
aI1031
aa(lp155
I1451
aI547
aI1753
aI3482
aI3184
aI2877
aI203
aI1247
aI2759
aI431
aI1028
aI1031
aa(lp156
I1451
aI1847
aI689
aI2262
aI3488
aI2873
aI205
aI431
aI2724
aI579
aI3329
aI1031
aa(lp157
I1451
aI1142
aI3473
aI1908
aI3279
aI2404
aI2935
aI433
aI995
aI1031
aa(lp158
I1451
aI3221
aI1751
aI3430
aI2653
aI2859
aI3371
aI2419
aI2748
aI2204
aI992
aI1031
aa(lp159
I1451
aI1793
aI1716
aI2042
aI1362
aI2883
aI447
aI2613
aI362
aI3315
aI1102
aI1031
aa(lp160
I1451
aI1510
aI1764
aI3433
aI111
aI2885
aI2929
aI2424
aI3035
aI1056
aI987
aI1031
aa(lp161
I1451
aI3442
aI638
aI2044
aI3111
aI266
aI2700
aI1208
aI3034
aI2201
aI3252
aI1031
aa(lp162
I1451
aI1452
aI1643
aI2022
aI1359
aI441
aI2507
aI3540
aI1094
aI1031
aa(lp163
I1451
aI2085
aI2253
aI404
aI868
aI3174
aI236
aI2574
aI2728
aI28
aI1012
aI1031
aa(lp164
I1451
aI2075
aI1713
aI2483
aI848
aI2516
aI2903
aI415
aI3345
aI2211
aI1089
aI1031
aa(lp165
I1451
aI82
aI1764
aI77
aI1343
aI263
aI299
aI3085
aI1103
aI1031
aa(lp166
I1451
aI1621
aI2109
aI2046
aI1317
aI265
aI2959
aI3319
aI3244
aI2169
aI1117
aI1031
aa(lp167
I1451
aI1584
aI2480
aI3425
aI2886
aI2876
aI2507
aI433
aI3329
aI1031
aa(lp168
I1451
aI3442
aI536
aI1901
aI1345
aI246
aI211
aI94
aI3298
aI491
aI965
aI1031
aa(lp169
I1451
aI776
aI1711
aI2122
aI885
aI2812
aI3579
aI3071
aI3249
aI1031
aa(lp170
I1451
aI1484
aI678
aI2360
aI1367
aI2528
aI3574
aI340
aI3192
aI2228
aI964
aI1031
aa(lp171
I1451
aI1672
aI2107
aI3429
aI1341
aI2811
aI3574
aI3316
aI1110
aI1031
aa(lp172
I1451
aI764
aI1639
aI529
aI1288
aI2879
aI271
aI176
aI1017
aI1031
aa(lp173
I1451
aI1593
aI731
aI2141
aI1270
aI2874
aI2711
aI2459
aI2550
aI3241
aI1113
aI1031
aa(lp174
I1451
aI749
aI1706
aI2471
aI1314
aI3607
aI234
aI912
aI2745
aI2012
aI1016
aI1031
aa(lp175
I1451
aI1540
aI1865
aI2119
aI2367
aI2852
aI267
aI430
aI3025
aI126
aI3546
aI1031
aa(lp176
I1451
aI1468
aI1715
aI559
aI861
aI3174
aI44
aI431
aI2728
aI2215
aI1126
aI1031
aa(lp177
I1451
aI65
aI689
aI721
aI2369
aI2837
aI271
aI2623
aI95
aI501
aI3249
aI1031
aa(lp178
I1451
aI1722
aI3385
aI2056
aI1361
aI2869
aI2938
aI3321
aI1110
aI1031
aa(lp179
I1451
aI1785
aI1651
aI1191
aI1
aI263
aI2973
aI174
aI3027
aI572
aI959
aI1031
aa(lp180
I1451
aI1555
aI1635
aI2360
aI144
aI2518
aI2929
aI3133
aI3024
aI2227
aI1076
aI1031
aa(lp181
I1451
aI1616
aI1856
aI1890
aI873
aI2818
aI3167
aI2563
aI2552
aI1996
aI1122
aI1031
aa(lp182
I1451
aI783
aI3385
aI1903
aI147
aI2860
aI3214
aI521
aI292
aI2439
aI1132
aI1031
aa(lp183
I1451
aI1419
aI1767
aI1910
aI1266
aI2849
aI272
aI3084
aI821
aI1031
aa(lp184
I1451
aI1629
aI1752
aI535
aI851
aI440
aI10
aI2423
aI2766
aI2202
aI3545
aI1031
aa(lp185
I1451
aI1823
aI1854
aI3424
aI1317
aI265
aI3164
aI3320
aI2765
aI2210
aI123
aI1031
aa(lp186
I1451
aI2071
aI536
aI625
aI3617
aI2878
aI300
aI3334
aI2542
aI2425
aI1021
aI1031
aa(lp187
I1451
aI1790
aI1764
aI2138
aI1
aI2864
aI2701
aI3065
aI2732
aI1997
aI1102
aI1031
aa(lp188
I1451
aI3221
aI3468
aI2045
aI1324
aI2804
aI2674
aI2441
aI2767
aI2002
aI1132
aI1031
aa(lp189
I1451
aI798
aI730
aI53
aI838
aI2400
aI3574
aI1982
aI2759
aI3068
aI1023
aI1031
aa(lp190
I1451
aI545
aI732
aI564
aI1332
aI2853
aI2925
aI2421
aI1069
aI1031
aa(lp191
I1451
aI1499
aI1758
aI1906
aI3177
aI2846
aI2792
aI3356
aI364
aI2008
aI3548
aI1031
aa(lp192
I1451
aI2057
aI638
aI2263
aI1283
aI2395
aI3277
aI342
aI2549
aI496
aI1008
aI1031
aa(lp193
I1451
aI1726
aI1868
aI2038
aI1289
aI2860
aI3511
aI1971
aI3017
aI3316
aI3327
aI1031
aa(lp194
I1451
aI1797
aI2110
aI3411
aI1303
aI2399
aI3361
aI3342
aI192
aI3293
aI1108
aI1031
aa(lp195
I1451
aI81
aI1715
aI533
aI839
aI2803
aI392
aI1972
aI3050
aI127
aI1105
aI1031
aa(lp196
I1451
aI759
aI2250
aI3485
aI865
aI2852
aI3100
aI3068
aI1105
aI1031
aa(lp197
I1451
aI679
aI691
aI2023
aI3186
aI2652
aI3163
aI2424
aI958
aI1031
aa(lp198
I1451
aI137
aI632
aI3482
aI1327
aI2808
aI235
aI3540
aI2757
aI412
aI1060
aI1031
aa(lp199
I1451
aI1679
aI1862
aI2263
aI1304
aI3499
aI2710
aI3254
aI367
aI2002
aI1061
aI1031
aa(lp200
I1451
aI1472
aI1874
aI2055
aI1263
aI2400
aI3151
aI584
aI2735
aI517
aI131
aI1031
aa(lp201
I1451
aI1460
aI1713
aI1659
aI147
aI2884
aI3511
aI3059
aI1099
aI1031
aa(lp202
I1451
aI1791
aI1747
aI404
aI875
aI2856
aI2958
aI339
aI3016
aI3065
aI1077
aI1031
aa(lp203
I1451
aI1832
aI1758
aI2053
aI1341
aI2853
aI390
aI2426
aI821
aI1031
aa(lp204
I1451
aI2089
aI1651
aI2133
aI1359
aI3105
aI3092
aI2454
aI1115
aI1031
aa(lp205
I1451
aI1499
aI668
aI409
aI3489
aI2884
aI212
aI2569
aI2738
aI2226
aI3327
aI1031
aa(lp206
I1451
aI1534
aI722
aI2470
aI850
aI2407
aI150
aI2618
aI289
aI2444
aI966
aI1031
aa(lp207
I1451
aI2085
aI670
aI2032
aI485
aI3607
aI3598
aI604
aI3244
aI2203
aI978
aI1031
aa(lp208
I1451
aI1601
aI670
aI2028
aI836
aI253
aI2789
aI2437
aI2561
aI3260
aI3329
aI1031
aa(lp209
I1451
aI755
aI2354
aI3483
aI1356
aI2342
aI2922
aI1958
aI289
aI2175
aI995
aI1031
aa(lp210
I1451
aI1422
aI1764
aI2264
aI3494
aI382
aI3360
aI3132
aI1097
aI1031
aa(lp211
I1451
aI2087
aI1878
aI2034
aI1354
aI2806
aI3202
aI1956
aI3128
aI2439
aI31
aI1031
aa(lp212
I1451
aI1143
aI2251
aI3433
aI1319
aI2520
aI2722
aI2433
aI282
aI2003
aI3267
aI1031
aa(lp213
I1451
aI2058
aI1852
aI2035
aI852
aI2404
aI11
aI2589
aI2734
aI2349
aI1018
aI1031
aa(lp214
I1451
aI1147
aI3466
aI3425
aI856
aI2865
aI2975
aI2420
aI3026
aI2214
aI1051
aI1031
aa(lp215
I1451
aI1585
aI1740
aI2018
aI1287
aI2523
aI302
aI2591
aI3193
aI178
aI1087
aI1031
aa(lp216
I1451
aI1554
aI1182
aI3426
aI3110
aI2821
aI275
aI1214
aI181
aI3084
aI1131
aI1031
aa(lp217
I1451
aI1595
aI1719
aI1899
aI856
aI2650
aI2539
aI2621
aI2750
aI516
aI1027
aI1031
aa(lp218
I1451
aI1605
aI726
aI404
aI1347
aI241
aI2991
aI3076
aI363
aI494
aI1036
aI1031
aa(lp219
I1451
aI1491
aI1864
aI486
aI3420
aI2521
aI2792
aI2426
aI961
aI1031
aa(lp220
I1451
aI1535
aI688
aI566
aI3185
aI2818
aI3151
aI1203
aI3244
aI2003
aI1032
aI1031
aa(lp221
I1451
aI1684
aI689
aI620
aI3423
aI383
aI3367
aI2424
aI3298
aI1991
aI1035
aI1031
aa(lp222
I1451
aI3398
aI1706
aI409
aI1374
aI461
aI318
aI339
aI285
aI2446
aI1078
aI1031
aa(lp223
I1451
aI1776
aI58
aI3427
aI1306
aI3499
aI2389
aI916
aI2729
aI494
aI1099
aI1031
aa(lp224
I1451
aI3220
aI686
aI564
aI1374
aI2514
aI444
aI2774
aI3041
aI3538
aI991
aI1031
aa(lp225
I1451
aI1792
aI691
aI3418
aI403
aI2805
aI2717
aI1953
aI3246
aI2439
aI965
aI1031
aa(lp226
I1451
aI777
aI670
aI532
aI1299
aI2805
aI3156
aI2434
aI1007
aI1031
aa(lp227
I1451
aI2063
aI725
aI2261
aI168
aI2827
aI3575
aI1238
aI191
aI2442
aI1091
aI1031
aa(lp228
I1451
aI1554
aI2109
aI716
aI2369
aI2827
aI2946
aI3078
aI999
aI1031
aa(lp229
I1451
aI1433
aI1855
aI1894
aI1348
aI2400
aI2969
aI2436
aI1032
aI1031
aa(lp230
I1451
aI547
aI1866
aI2472
aI1275
aI2871
aI2655
aI2459
aI123
aI1031
aa(lp231
I1451
aI1777
aI3380
aI2031
aI1358
aI2523
aI3353
aI2438
aI1116
aI1031
aa(lp232
I1451
aI1534
aI1637
aI2261
aI1268
aI3182
aI296
aI1931
aI3556
aI109
aI1069
aI1031
aa(lp233
I1451
aI1550
aI691
aI3430
aI3108
aI2843
aI2386
aI354
aI2542
aI2450
aI1131
aI1031
aa(lp234
I1451
aI1610
aI1759
aI631
aI1324
aI3499
aI317
aI2433
aI3543
aI1031
aa(lp235
I1451
aI1434
aI1755
aI1901
aI1348
aI2524
aI391
aI3333
aI3268
aI1031
aa(lp236
I1451
aI1544
aI1721
aI2027
aI1330
aI2816
aI140
aI3240
aI3060
aI3286
aI1132
aI1031
aa(lp237
I1451
aI697
aI1879
aI2471
aI2653
aI3174
aI2783
aI2431
aI2733
aI2015
aI1095
aI1031
aa(lp238
I1451
aI1426
aI1876
aI2262
aI3186
aI256
aI308
aI2335
aI3044
aI94
aI1062
aI1031
aa(lp239
I1451
aI1807
aI2359
aI404
aI1357
aI240
aI3162
aI1958
aI2553
aI2006
aI3546
aI1031
aa(lp240
I1451
aI760
aI637
aI2130
aI1332
aI254
aI2675
aI278
aI955
aI1031
aa(lp241
I1451
aI1594
aI1872
aI1894
aI3423
aI3105
aI2918
aI911
aI3559
aI2443
aI982
aI1031
aa(lp242
I1451
aI1597
aI1739
aI2028
aI1269
aI2804
aI298
aI3332
aI2746
aI2170
aI1113
aI1031
aa(lp243
I1451
aI808
aI2106
aI718
aI1362
aI2884
aI2393
aI1238
aI3236
aI2011
aI3547
aI1031
aa(lp244
I1451
aI1683
aI723
aI719
aI325
aI2843
aI2784
aI1199
aI3129
aI2232
aI1116
aI1031
aa(lp245
I1451
aI1134
aI2480
aI2260
aI1354
aI2397
aI2708
aI3071
aI961
aI1031
aa(lp246
I1451
aI2081
aI1643
aI1886
aI2269
aI3609
aI158
aI2615
aI3256
aI2170
aI1037
aI1031
aa(lp247
I1451
aI1450
aI1814
aI3483
aI1273
aI3497
aI3372
aI2329
aI2750
aI3248
aI1039
aI1031
aa(lp248
I1451
aI2063
aI727
aI2036
aI3619
aI241
aI2939
aI2618
aI186
aI278
aI1102
aI1031
aa(lp249
I1451
aI1530
aI1646
aI616
aI147
aI327
aI295
aI1965
aI3344
aI2424
aI960
aI1031
aa(lp250
I1451
aI3445
aI1767
aI2142
aI1378
aI2848
aI2670
aI3330
aI2558
aI3293
aI1011
aI1031
aa(lp251
I1451
aI1676
aI676
aI2265
aI1355
aI2524
aI2720
aI417
aI1015
aI1031
aa(lp252
I1451
aI65
aI3381
aI2470
aI1336
aI2645
aI2539
aI2422
aI1102
aI1031
aa(lp253
I1451
aI1843
aI922
aI2122
aI1379
aI2407
aI2909
aI3136
aI3039
aI3330
aI1124
aI1031
aa(lp254
I1451
aI3446
aI675
aI623
aI1364
aI327
aI3213
aI1224
aI188
aI417
aI1018
aI1031
aa(lp255
I1451
aI3397
aI729
aI3426
aI2485
aI2806
aI216
aI3335
aI2745
aI418
aI955
aI1031
aa(lp256
I1451
aI1822
aI1772
aI2129
aI1341
aI3174
aI2891
aI419
aI1019
aI1031
aa(lp257
I1451
aI2051
aI2110
aI560
aI1316
aI2862
aI3121
aI431
aI965
aI1031
aa(lp258
I1451
aI3219
aI637
aI2256
aI1324
aI247
aI3201
aI352
aI3028
aI2201
aI1036
aI1031
aa(lp259
I1451
aI655
aI688
aI2055
aI1369
aI381
aI228
aI2416
aI1115
aI1031
aa(lp260
I1451
aI787
aI728
aI531
aI1267
aI2861
aI2714
aI279
aI1409
aI1031
aa(lp261
I1451
aI1702
aI1742
aI1661
aI1379
aI2857
aI3278
aI582
aI3035
aI3132
aI1069
aI1031
aa(lp262
I1451
aI1687
aI1816
aI3430
aI3621
aI2840
aI2920
aI2412
aI3034
aI3308
aI994
aI1031
aa(lp263
I1451
aI735
aI1635
aI2256
aI1309
aI2515
aI170
aI2629
aI2729
aI3070
aI1009
aI1031
aa(lp264
I1451
aI815
aI723
aI404
aI403
aI2854
aI3210
aI2770
aI3544
aI1031
aa(lp265
I1451
aI1133
aI695
aI2116
aI1360
aI3104
aI3210
aI2591
aI3040
aI108
aI1047
aI1031
aa(lp266
I1451
aI805
aI1855
aI3485
aI874
aI3497
aI2506
aI278
aI2754
aI3308
aI1010
aI1031
aa(lp267
I1451
aI746
aI1817
aI2137
aI3625
aI2402
aI3095
aI2417
aI3231
aI1031
aa(lp268
I1451
aI705
aI1638
aI2056
aI1267
aI2404
aI20
aI2167
aI26
aI2178
aI1061
aI1031
aa(lp269
I1451
aI1517
aI1743
aI623
aI3625
aI2818
aI2665
aI180
aI2723
aI2212
aI1044
aI1031
aa(lp270
I1451
aI1595
aI1864
aI1886
aI1376
aI2883
aI3204
aI2437
aI1006
aI1031
aa(lp271
I1451
aI1539
aI1638
aI630
aI2370
aI247
aI3506
aI2607
aI2747
aI2200
aI997
aI1031
aa(lp272
I1451
aI2081
aI2112
aI1902
aI1355
aI3610
aI10
aI3133
aI2758
aI713
aI998
aI1031
aa(lp273
I1451
aI819
aI1753
aI3427
aI847
aI262
aI273
aI1247
aI2765
aI2182
aI1102
aI1031
aa(lp274
I1451
aI1604
aI1865
aI2360
aI1338
aI2808
aI3166
aI2456
aI2737
aI497
aI3249
aI1031
aa(lp275
I1451
aI1433
aI405
aI1905
aI1371
aI3105
aI2909
aI2427
aI1075
aI1031
aa(lp276
I1451
aI1509
aI637
aI2258
aI325
aI2879
aI3603
aI1983
aI361
aI3348
aI1027
aI1031
aa(lp277
I1451
aI1838
aI672
aI2032
aI3186
aI2526
aI2979
aI2417
aI1069
aI1031
aa(lp278
I1451
aI1836
aI3385
aI2132
aI1348
aI2833
aI44
aI2437
aI1105
aI1031
aa(lp279
I1451
aI1569
aI633
aI2128
aI1281
aI3614
aI214
aI2454
aI3543
aI1031
aa(lp280
I1451
aI2099
aI1852
aI3425
aI1309
aI2514
aI2798
aI1202
aI2544
aI3316
aI1007
aI1031
aa(lp281
I1451
aI3444
aI687
aI529
aI850
aI437
aI228
aI3081
aI1012
aI1031
aa(lp282
I1451
aI489
aI1639
aI3411
aI147
aI2876
aI2967
aI332
aI3013
aI2414
aI1036
aI1031
aa(lp283
I1451
aI1485
aI1811
aI559
aI2370
aI266
aI3091
aI1201
aI2730
aI2457
aI1031
aI1031
aa(lp284
I1451
aI649
aI3473
aI1909
aI1266
aI244
aI2909
aI3076
aI1108
aI1031
aa(lp285
I1451
aI2247
aI1816
aI1881
aI1283
aI2399
aI200
aI1222
aI3559
aI2008
aI123
aI1031
aa(lp286
I1451
aI3396
aI1179
aI2265
aI1318
aI266
aI435
aI178
aI1045
aI1031
aa(lp287
I1451
aI2091
aI2110
aI1191
aI878
aI3101
aI2952
aI3254
aI187
aI120
aI968
aI1031
aa(lp288
I1451
aI771
aI1855
aI2471
aI1353
aI3182
aI3007
aI279
aI1017
aI1031
aa(lp289
I1451
aI2098
aI1765
aI1907
aI1268
aI3499
aI3368
aI3078
aI2731
aI2202
aI1029
aI1031
aa(lp290
I1451
aI787
aI1741
aI2040
aI2367
aI247
aI3150
aI3321
aI3045
aI500
aI1049
aI1031
aa(lp291
I1451
aI1689
aI1646
aI616
aI2270
aI2837
aI2928
aI2381
aI2736
aI2203
aI1051
aI1031
aa(lp292
I1451
aI795
aI86
aI3427
aI1322
aI2838
aI317
aI463
aI3024
aI3078
aI1083
aI1031
aa(lp293
I1451
aI1563
aI1646
aI565
aI864
aI259
aI2390
aI351
aI2755
aI33
aI958
aI1031
aa(lp294
I1451
aI1802
aI1652
aI1658
aI1340
aI2833
aI3529
aI3330
aI2730
aI2234
aI1033
aI1031
aa(lp295
I1451
aI1610
aI692
aI2126
aI144
aI2400
aI3156
aI2382
aI3028
aI2772
aI3327
aI1031
aa(lp296
I1451
aI1499
aI1873
aI487
aI866
aI2518
aI444
aI2433
aI372
aI2231
aI1027
aI1031
aa(lp297
I1451
aI2047
aI3387
aI1909
aI325
aI2810
aI3001
aI3085
aI281
aI1056
aI1119
aI1031
aa(lp298
I1451
aI1834
aI2109
aI2043
aI1344
aI2842
aI2783
aI427
aI982
aI1031
aa(lp299
I1451
aI680
aI1766
aI529
aI1318
aI2841
aI2933
aI3065
aI2741
aI2202
aI959
aI1031
aa(lp300
I1451
aI2064
aI456
aI1892
aI2372
aI2401
aI206
aI2457
aI360
aI2350
aI1019
aI1031
aa(lp301
I1451
aI1809
aI1739
aI2362
aI1275
aI2856
aI3156
aI3571
aI2757
aI2348
aI1131
aI1031
aa(lp302
I1451
aI1431
aI732
aI2127
aI3494
aI3610
aI3204
aI2421
aI1076
aI1031
aa(lp303
I1451
aI1623
aI1873
aI2044
aI3279
aI2853
aI227
aI279
aI1005
aI1031
aa(lp304
I1451
aI818
aI676
aI566
aI1336
aI2872
aI2997
aI2603
aI2728
aI496
aI3228
aI1031
aa(lp305
I1451
aI704
aI1644
aI3424
aI3619
aI265
aI887
aI1945
aI3246
aI429
aI1108
aI1031
aa(lp306
I1451
aI3396
aI639
aI620
aI1333
aI2871
aI2904
aI180
aI995
aI1031
aa(lp307
I1451
aI1847
aI1749
aI2122
aI871
aI2809
aI2972
aI3131
aI3017
aI2173
aI1411
aI1031
aa(lp308
I1451
aI1617
aI1865
aI2133
aI857
aI265
aI1253
aI3075
aI1088
aI1031
aa(lp309
I1451
aI1849
aI1812
aI2361
aI884
aI2652
aI2712
aI913
aI2723
aI2447
aI1131
aI1031
aa(lp310
I1451
aI1440
aI2480
aI630
aI1333
aI254
aI3579
aI3084
aI1131
aI1031
aa(lp311
I1451
aI647
aI537
aI2032
aI1306
aI2400
aI3003
aI605
aI194
aI2432
aI1004
aI1031
aa(lp312
I1451
aI2094
aI1759
aI2017
aI1356
aI2646
aI2913
aI3071
aI2762
aI2200
aI3232
aI1031
aa(lp313
I1451
aI1417
aI3385
aI2046
aI1373
aI2837
aI3113
aI2640
aI3192
aI108
aI974
aI1031
aa(lp314
I1451
aI820
aI1854
aI531
aI852
aI2516
aI2946
aI3058
aI1107
aI1031
aa(lp315
I1451
aI1456
aI2480
aI1888
aI2889
aI437
aI208
aI2629
aI187
aI3075
aI1062
aI1031
aa(lp316
I1451
aI1416
aI2109
aI2470
aI1316
aI2829
aI2990
aI1212
aI2750
aI3332
aI1069
aI1031
aa(lp317
I1451
aI1677
aI2124
aI1657
aI1372
aI327
aI3000
aI349
aI2752
aI2414
aI1071
aI1031
aa(lp318
I1451
aI662
aI922
aI1662
aI2368
aI459
aI2997
aI3082
aI2742
aI1998
aI993
aI1031
aa(lp319
I1451
aI649
aI1814
aI618
aI1357
aI2521
aI2953
aI1989
aI289
aI3248
aI1011
aI1031
aa(lp320
I1451
aI649
aI1818
aI2140
aI1325
aI256
aI3366
aI2440
aI980
aI1031
aa(lp321
I1451
aI3394
aI1852
aI2257
aI2486
aI3612
aI2786
aI2341
aI2727
aI182
aI991
aI1031
aa(lp322
I1451
aI1807
aI55
aI718
aI1280
aI2521
aI2900
aI3068
aI2547
aI2205
aI1125
aI1031
aa(lp323
I1451
aI3440
aI1753
aI1655
aI1345
aI2834
aI2897
aI2419
aI1025
aI1031
aa(lp324
I1451
aI3457
aI2123
aI2127
aI1298
aI2874
aI3575
aI2415
aI189
aI2221
aI1109
aI1031
aa(lp325
I1451
aI540
aI1867
aI2118
aI851
aI2849
aI2788
aI2571
aI2751
aI2236
aI1016
aI1031
aa(lp326
I1451
aI780
aI2106
aI721
aI1276
aI2834
aI2926
aI2637
aI2761
aI1056
aI1039
aI1031
aa(lp327
I1451
aI1842
aI2114
aI3432
aI868
aI252
aI2897
aI2629
aI372
aI3069
aI1059
aI1031
aa(lp328
I1451
aI1496
aI1707
aI623
aI3624
aI2832
aI2925
aI2641
aI2739
aI2179
aI959
aI1031
aa(lp329
I1451
aI2246
aI635
aI2017
aI1297
aI3504
aI888
aI1981
aI3027
aI127
aI1112
aI1031
aa(lp330
I1451
aI1829
aI923
aI630
aI868
aI2833
aI2959
aI122
aI959
aI1031
aa(lp331
I1451
aI772
aI1863
aI2138
aI840
aI253
aI3374
aI2437
aI1115
aI1031
aa(lp332
I1451
aI781
aI55
aI621
aI1269
aI264
aI2668
aI343
aI3039
aI2350
aI1079
aI1031
aa(lp333
I1451
aI1481
aI3386
aI2138
aI839
aI2834
aI3375
aI278
aI3246
aI2173
aI1048
aI1031
aa(lp334
I1451
aI768
aI1754
aI3431
aI3619
aI2807
aI2947
aI3320
aI2727
aI2197
aI1046
aI1031
aa(lp335
I1451
aI3221
aI674
aI2141
aI1328
aI253
aI2539
aI1974
aI2756
aI2189
aI1046
aI1031
aa(lp336
I1451
aI67
aI1757
aI558
aI1333
aI249
aI44
aI1214
aI3557
aI426
aI986
aI1031
aa(lp337
I1451
aI1501
aI2123
aI3477
aI1316
aI2820
aI319
aI2774
aI2729
aI2458
aI1003
aI1031
aa(lp338
I1451
aI1599
aI672
aI1892
aI880
aI253
aI316
aI413
aI3025
aI1991
aI1002
aI1031
aa(lp339
I1451
aI1138
aI693
aI535
aI1331
aI2822
aI3148
aI2565
aI189
aI2454
aI1074
aI1031
aa(lp340
I1451
aI1832
aI688
aI2031
aI1264
aI327
aI2919
aI1986
aI3554
aI2428
aI1411
aI1031
aa(lp341
I1451
aI1570
aI2358
aI2045
aI1260
aI3612
aI3158
aI3542
aI289
aI108
aI1046
aI1031
aa(lp342
I1451
aI790
aI725
aI2019
aI1359
aI265
aI3277
aI1971
aI2742
aI3240
aI1095
aI1031
aa(lp343
I1451
aI1490
aI1876
aI626
aI1290
aI2822
aI3214
aI3071
aI968
aI1031
aa(lp344
I1451
aI660
aI3469
aI2483
aI1373
aI2401
aI3001
aI1962
aI3258
aI2220
aI116
aI1031
aa(lp345
I1451
aI770
aI724
aI2017
aI145
aI2815
aI3195
aI3074
aI1411
aI1031
aa(lp346
I1451
aI546
aI2110
aI2261
aI873
aI437
aI3374
aI2340
aI2762
aI2770
aI1126
aI1031
aa(lp347
I1451
aI789
aI1770
aI1881
aI2268
aI2806
aI2800
aI3132
aI1045
aI1031
aa(lp348
I1451
aI2101
aI678
aI1656
aI3183
aI2853
aI323
aI3079
aI995
aI1031
aa(lp349
I1451
aI1483
aI1816
aI409
aI863
aI259
aI2720
aI3321
aI2751
aI2237
aI1120
aI1031
aa(lp350
I1451
aI3395
aI1850
aI2030
aI1305
aI2400
aI3112
aI2415
aI3558
aI2189
aI964
aI1031
aa(lp351
I1451
aI1849
aI732
aI3418
aI3108
aI252
aI1250
aI413
aI361
aI495
aI1131
aI1031
aa(lp352
I1451
aI3402
aI722
aI1882
aI1354
aI2840
aI3138
aI2617
aI3044
aI3079
aI1129
aI1031
aa(lp353
I1451
aI1495
aI2255
aI624
aI872
aI2519
aI267
aI1202
aI3039
aI3065
aI1001
aI1031
aa(lp354
I1451
aI645
aI1767
aI3481
aI1289
aI383
aI3604
aI3274
aI3236
aI421
aI979
aI1031
aa(lp355
I1451
aI762
aI678
aI2483
aI1279
aI2838
aI890
aI430
aI3193
aI2176
aI956
aI1031
aa(lp356
I1451
aI1515
aI2481
aI1907
aI1343
aI2514
aI160
aI174
aI1036
aI1031
aa(lp357
I1451
aI1680
aI3472
aI2037
aI1270
aI2813
aI3100
aI2453
aI2753
aI135
aI1119
aI1031
aa(lp358
I1451
aI1680
aI670
aI3483
aI3494
aI2871
aI231
aI162
aI190
aI3082
aI3268
aI1031
aa(lp359
I1451
aI1587
aI722
aI2035
aI845
aI2803
aI3155
aI2428
aI1129
aI1031
aa(lp360
I1451
aI1472
aI1761
aI3412
aI873
aI2865
aI2945
aI2420
aI1068
aI1031
aa(lp361
I1451
aI2352
aI1751
aI2266
aI881
aI251
aI3377
aI3540
aI3544
aI1031
aa(lp362
I1451
aI1616
aI635
aI2129
aI1302
aI2867
aI3379
aI3540
aI2556
aI1994
aI972
aI1031
aa(lp363
I1451
aI1591
aI1752
aI2031
aI1319
aI2528
aI18
aI2412
aI3013
aI570
aI995
aI1031
aa(lp364
I1451
aI2091
aI2108
aI2471
aI2367
aI461
aI3503
aI2163
aI3027
aI2439
aI990
aI1031
aa(lp365
I1451
aI1737
aI1872
aI2365
aI875
aI2398
aI2904
aI2772
aI3257
aI2182
aI952
aI1031
aa(lp366
I1451
aI1599
aI1761
aI1907
aI3621
aI2344
aI3598
aI2607
aI3554
aI3538
aI3267
aI1031
aa(lp367
I1451
aI1441
aI1763
aI529
aI1301
aI460
aI2785
aI588
aI373
aI119
aI1095
aI1031
aa(lp368
I1451
aI644
aI1868
aI1892
aI1306
aI2651
aI272
aI3058
aI2552
aI2173
aI1074
aI1031
aa(lp369
I1451
aI1566
aI536
aI2142
aI852
aI2647
aI268
aI3254
aI1012
aI1031
aa(lp370
I1451
aI704
aI2124
aI2021
aI1278
aI2848
aI2721
aI2335
aI2550
aI2241
aI1411
aI1031
aa(lp371
I1451
aI788
aI729
aI2471
aI1276
aI2650
aI3144
aI903
aI362
aI3260
aI1112
aI1031
aa(lp372
I1451
aI680
aI676
aI620
aI1379
aI2343
aI223
aI1244
aI3014
aI1991
aI1132
aI1031
aa(lp373
I1451
aI1627
aI674
aI3425
aI1320
aI2828
aI2962
aI2565
aI2731
aI130
aI1070
aI1031
aa(lp374
I1451
aI1674
aI1709
aI1892
aI1353
aI2343
aI229
aI2441
aI193
aI2226
aI1129
aI1031
aa(lp375
I1451
aI137
aI688
aI2028
aI864
aI3605
aI2718
aI2585
aI3128
aI2449
aI1112
aI1031
aa(lp376
I1451
aI1577
aI2111
aI721
aI3493
aI441
aI2507
aI1206
aI2547
aI3225
aI1130
aI1031
aa(lp377
I1451
aI773
aI1766
aI2137
aI1261
aI2816
aI2392
aI2434
aI3027
aI573
aI1009
aI1031
aa(lp378
I1451
aI1841
aI1742
aI2362
aI1258
aI2402
aI270
aI2338
aI281
aI2435
aI1110
aI1031
aa(lp379
I1451
aI2082
aI2255
aI1658
aI886
aI252
aI2712
aI2432
aI2762
aI2227
aI3329
aI1031
aa(lp380
I1451
aI3398
aI1860
aI2119
aI886
aI2874
aI2710
aI2336
aI291
aI1991
aI1409
aI1031
aa(lp381
I1451
aI3464
aI1743
aI487
aI1260
aI2803
aI2507
aI2458
aI3346
aI491
aI1048
aI1031
aa(lp382
I1451
aI1428
aI3383
aI532
aI1378
aI2805
aI271
aI3317
aI989
aI1031
aa(lp383
I1451
aI1684
aI1639
aI2133
aI1298
aI2649
aI2678
aI3059
aI1008
aI1031
aa(lp384
I1451
aI3397
aI693
aI1901
aI1348
aI260
aI3577
aI178
aI957
aI1031
aa(lp385
I1451
aI1686
aI86
aI2025
aI842
aI249
aI2979
aI2418
aI2723
aI2006
aI1008
aI1031
aa(lp386
I1451
aI1466
aI1752
aI2362
aI3179
aI3496
aI2929
aI1194
aI3560
aI3074
aI985
aI1031
aa(lp387
I1451
aI2063
aI673
aI2038
aI2368
aI2822
aI3116
aI3538
aI2745
aI2177
aI953
aI1031
aa(lp388
I1451
aI947
aI1745
aI2126
aI1304
aI3182
aI3139
aI3066
aI1062
aI1031
aa(lp389
I1451
aI1530
aI925
aI2366
aI1306
aI259
aI44
aI2574
aI2762
aI574
aI952
aI1031
aa(lp390
I1451
aI2064
aI692
aI563
aI1274
aI2866
aI201
aI3332
aI3049
aI2011
aI1412
aI1031
aa(lp391
I1451
aI2248
aI691
aI2136
aI2369
aI2407
aI2657
aI180
aI1023
aI1031
aa(lp392
I1451
aI1619
aI673
aI3485
aI1281
aI2811
aI2941
aI2440
aI3031
aI503
aI3250
aI1031
aa(lp393
I1451
aI1589
aI1652
aI2032
aI3617
aI244
aI3138
aI1246
aI2747
aI2446
aI991
aI1031
aa(lp394
I1451
aI768
aI1856
aI2025
aI867
aI2528
aI1257
aI2376
aI121
aI2182
aI1113
aI1031
aa(lp395
I1451
aI1830
aI1654
aI2142
aI3178
aI2842
aI3189
aI32
aI290
aI2178
aI1103
aI1031
aa(lp396
I1451
aI643
aI1179
aI2126
aI1374
aI2524
aI2927
aI3332
aI2730
aI577
aI1111
aI1031
aa(lp397
I1451
aI736
aI1646
aI2142
aI1364
aI241
aI1253
aI3063
aI3014
aI2223
aI1127
aI1031
aa(lp398
I1451
aI1727
aI1653
aI2021
aI485
aI169
aI3373
aI2341
aI3050
aI2010
aI972
aI1031
aa(lp399
I1451
aI1615
aI690
aI2035
aI2
aI243
aI3162
aI2610
aI288
aI3083
aI1111
aI1031
aa(lp400
I1451
aI2082
aI1770
aI1662
aI2888
aI2827
aI2708
aI2455
aI2740
aI2227
aI3231
aI1031
aa(lp401
I1451
aI700
aI1767
aI3482
aI3106
aI244
aI3166
aI3338
aI3027
aI3287
aI1129
aI1031
aa(lp402
I1451
aI2070
aI1652
aI2056
aI1359
aI2882
aI2662
aI1222
aI3346
aI2220
aI1002
aI1031
aa(lp403
I1451
aI1699
aI1879
aI2264
aI3280
aI2344
aI150
aI1958
aI287
aI2210
aI1035
aI1031
aa(lp404
I1451
aI1524
aI1716
aI2031
aI1333
aI254
aI275
aI98
aI358
aI179
aI1093
aI1031
aa(lp405
I1451
aI3407
aI1812
aI3425
aI145
aI2344
aI2966
aI2443
aI195
aI2349
aI1099
aI1031
aa(lp406
I1451
aI1465
aI641
aI1885
aI875
aI2854
aI3531
aI3566
aI191
aI115
aI1060
aI1031
aa(lp407
I1451
aI3389
aI689
aI626
aI1293
aI2876
aI205
aI177
aI981
aI1031
aa(lp408
I1451
aI806
aI1647
aI2021
aI1302
aI259
aI166
aI425
aI3192
aI1994
aI987
aI1031
aa(lp409
I1451
aI1736
aI1761
aI2032
aI886
aI442
aI2940
aI1229
aI164
aI2005
aI1095
aI1031
aa(lp410
I1451
aI1433
aI1865
aI3483
aI3494
aI2401
aI229
aI96
aI362
aI2210
aI1127
aI1031
aa(lp411
I1451
aI2073
aI405
aI1656
aI1340
aI2807
aI2783
aI605
aI2562
aI490
aI1078
aI1031
aa(lp412
I1451
aI554
aI1721
aI562
aI1372
aI2804
aI216
aI2382
aI2732
aI413
aI3268
aI1031
aa(lp413
I1451
aI1141
aI1649
aI561
aI873
aI2882
aI3008
aI1957
aI3017
aI1999
aI973
aI1031
aa(lp414
I1451
aI1722
aI1720
aI2126
aI3185
aI438
aI378
aI2577
aI2729
aI418
aI974
aI1031
aa(lp415
I1451
aI1626
aI1875
aI535
aI1345
aI246
aI154
aI2635
aI3129
aI2441
aI1030
aI1031
aa(lp416
I1451
aI1586
aI1741
aI2036
aI886
aI2849
aI2791
aI276
aI3129
aI182
aI1113
aI1031
aa(lp417
I1451
aI685
aI2109
aI623
aI3106
aI2878
aI2654
aI340
aI3236
aI3289
aI1059
aI1031
aa(lp418
I1451
aI1494
aI1184
aI2135
aI2370
aI2526
aI3367
aI3134
aI2553
aI2242
aI1094
aI1031
aa(lp419
I1451
aI1775
aI3471
aI3411
aI1290
aI2649
aI887
aI3086
aI192
aI32
aI965
aI1031
aa(lp420
I1451
aI1579
aI691
aI2027
aI1275
aI2876
aI2703
aI2587
aI2741
aI2004
aI1023
aI1031
aa(lp421
I1451
aI1727
aI1746
aI3433
aI3183
aI146
aI3208
aI423
aI953
aI1031
aa(lp422
I1451
aI1586
aI1758
aI2029
aI875
aI3104
aI301
aI2435
aI1014
aI1031
aa(lp423
I1451
aI539
aI1873
aI2119
aI843
aI48
aI2972
aI590
aI2751
aI2437
aI821
aI1031
aa(lp424
I1451
aI1498
aI638
aI1889
aI1325
aI259
aI2786
aI2425
aI3256
aI491
aI961
aI1031
aa(lp425
I1451
aI945
aI1873
aI2016
aI1285
aI2883
aI2903
aI127
aI3258
aI499
aI1065
aI1031
aa(lp426
I1451
aI1808
aI633
aI1898
aI1272
aI3499
aI3364
aI1948
aI3554
aI511
aI1006
aI1031
aa(lp427
I1451
aI1590
aI675
aI2023
aI2268
aI381
aI318
aI3085
aI1005
aI1031
aa(lp428
I1451
aI1584
aI677
aI919
aI1298
aI2520
aI2911
aI343
aI3295
aI1996
aI1001
aI1031
aa(lp429
I1451
aI743
aI3465
aI73
aI844
aI244
aI2695
aI2335
aI3012
aI2346
aI1121
aI1031
aa(lp430
I1451
aI800
aI640
aI565
aI1319
aI2862
aI2659
aI3330
aI2763
aI2180
aI1107
aI1031
aa(lp431
I1451
aI771
aI3473
aI3425
aI1341
aI3611
aI112
aI430
aI953
aI1031
aa(lp432
I1451
aI1552
aI674
aI2126
aI2267
aI2815
aI314
aI431
aI953
aI1031
aa(lp433
I1451
aI1701
aI1875
aI558
aI144
aI2833
aI2389
aI3064
aI980
aI1031
aa(lp434
I1451
aI2103
aI1816
aI624
aI854
aI3607
aI2981
aI3080
aI3043
aI511
aI966
aI1031
aa(lp435
I1451
aI763
aI2124
aI2036
aI1267
aI329
aI2963
aI591
aI27
aI2419
aI1082
aI1031
aa(lp436
I1451
aI1461
aI1864
aI2053
aI886
aI2828
aI209
aI2419
aI3251
aI1031
aa(lp437
I1451
aI1475
aI1754
aI2055
aI845
aI252
aI2912
aI3085
aI1064
aI1031
aa(lp438
I1451
aI2244
aI1766
aI2263
aI836
aI2819
aI2986
aI3538
aI1036
aI1031
aa(lp439
I1451
aI1497
aI56
aI2133
aI454
aI241
aI1257
aI1987
aI3557
aI2233
aI1101
aI1031
aa(lp440
I1451
aI1604
aI1743
aI1900
aI3188
aI2853
aI450
aI2593
aI3246
aI1993
aI1095
aI1031
aa(lp441
I1451
aI1612
aI1708
aI3427
aI862
aI2830
aI170
aI3320
aI2769
aI1993
aI973
aI1031
aa(lp442
I1451
aI2246
aI2114
aI2266
aI3423
aI2819
aI2914
aI2166
aI360
aI2187
aI1016
aI1031
aa(lp443
I1451
aI1780
aI1647
aI2053
aI845
aI256
aI3008
aI914
aI280
aI3240
aI1024
aI1031
aa(lp444
I1451
aI1832
aI56
aI1657
aI1319
aI3174
aI1251
aI433
aI1060
aI1031
aa(lp445
I1451
aI1495
aI3386
aI628
aI870
aI256
aI3150
aI431
aI1089
aI1031
aa(lp446
I1451
aI3449
aI2355
aI2137
aI1263
aI386
aI3009
aI2160
aI290
aI2225
aI1113
aI1031
aa(lp447
I1451
aI1797
aI1816
aI626
aI1303
aI2838
aI2541
aI415
aI994
aI1031
aa(lp448
I1451
aI3464
aI638
aI1659
aI1323
aI2865
aI2706
aI2435
aI3039
aI580
aI1097
aI1031
aa(lp449
I1451
aI679
aI1754
aI1189
aI1332
aI437
aI19
aI586
aI293
aI2431
aI1008
aI1031
aa(lp450
I1451
aI1556
aI405
aI73
aI1330
aI3182
aI2937
aI3320
aI1031
aI1031
aa(lp451
I1451
aI1611
aI724
aI1658
aI1293
aI259
aI2717
aI2438
aI3052
aI505
aI1035
aI1031
aa(lp452
I1451
aI1574
aI2108
aI2056
aI2888
aI260
aI2943
aI3572
aI2767
aI2770
aI1020
aI1031
aa(lp453
I1451
aI762
aI641
aI2122
aI1338
aI2805
aI2964
aI520
aI280
aI3067
aI1123
aI1031
aa(lp454
I1451
aI666
aI1854
aI2362
aI839
aI244
aI2697
aI2437
aI3025
aI2203
aI1032
aI1031
aa(lp455
I1451
aI3396
aI1186
aI2130
aI1273
aI2869
aI301
aI2421
aI2746
aI581
aI1091
aI1031
aa(lp456
I1451
aI552
aI1873
aI1890
aI1267
aI3607
aI2699
aI2595
aI288
aI503
aI1067
aI1031
aa(lp457
I1451
aI3439
aI1644
aI1907
aI3622
aI2836
aI314
aI914
aI2763
aI494
aI1014
aI1031
aa(lp458
I1451
aI945
aI1812
aI2116
aI1283
aI2865
aI2973
aI2444
aI1112
aI1031
aa(lp459
I1451
aI540
aI86
aI2041
aI2368
aI2523
aI3003
aI2628
aI3256
aI182
aI1031
aI1031
aa(lp460
I1451
aI1673
aI3470
aI630
aI3279
aI3105
aI3575
aI3082
aI3028
aI3287
aI1088
aI1031
aa(lp461
I1451
aI658
aI689
aI2037
aI3279
aI3181
aI2890
aI1982
aI3014
aI3133
aI1085
aI1031
aa(lp462
I1451
aI2085
aI1856
aI2016
aI1294
aI3605
aI2976
aI3332
aI181
aI3305
aI989
aI1031
aa(lp463
I1451
aI3454
aI722
aI622
aI1326
aI2853
aI2977
aI1976
aI2737
aI2445
aI1103
aI1031
aa(lp464
I1451
aI1687
aI1864
aI2054
aI2485
aI329
aI2980
aI182
aI1050
aI1031
aa(lp465
I1451
aI1144
aI1634
aI620
aI1346
aI2648
aI1257
aI3320
aI1109
aI1031
aa(lp466
I1451
aI814
aI2110
aI2116
aI1366
aI2402
aI160
aI2449
aI970
aI1031
aa(lp467
I1451
aI1560
aI1651
aI3427
aI2653
aI2863
aI270
aI414
aI293
aI2233
aI998
aI1031
aa(lp468
I1451
aI793
aI1815
aI3483
aI855
aI2406
aI9
aI1946
aI3558
aI3080
aI1101
aI1031
aa(lp469
I1451
aI744
aI1636
aI1882
aI1321
aI385
aI2791
aI1963
aI360
aI493
aI1098
aI1031
aa(lp470
I1451
aI756
aI723
aI1887
aI874
aI2847
aI2895
aI2636
aI3039
aI2451
aI998
aI1031
aa(lp471
I1451
aI1572
aI1859
aI486
aI877
aI2399
aI207
aI96
aI2545
aI3269
aI991
aI1031
aa(lp472
I1451
aI779
aI1864
aI2472
aI1349
aI2343
aI2924
aI418
aI1123
aI1031
aa(lp473
I1451
aI1627
aI1767
aI2027
aI3280
aI3614
aI2509
aI3540
aI1078
aI1031
aa(lp474
I1451
aI1738
aI58
aI2264
aI1269
aI2844
aI2785
aI1975
aI290
aI3075
aI1092
aI1031
aa(lp475
I1451
aI63
aI2123
aI1910
aI3619
aI263
aI3598
aI2443
aI2732
aI2008
aI1061
aI1031
aa(lp476
I1451
aI1847
aI641
aI3419
aI871
aI2815
aI3534
aI2424
aI193
aI2200
aI1044
aI1031
aa(lp477
I1451
aI1533
aI405
aI625
aI1305
aI259
aI2718
aI3562
aI2753
aI423
aI1050
aI1031
aa(lp478
I1451
aI1621
aI55
aI1660
aI2
aI249
aI2987
aI522
aI367
aI3315
aI1075
aI1031
aa(lp479
I1451
aI1603
aI1648
aI1908
aI1310
aI252
aI2710
aI3565
aI3026
aI2211
aI981
aI1031
aa(lp480
I1451
aI1689
aI922
aI1902
aI880
aI265
aI2390
aI2624
aI2752
aI421
aI1007
aI1031
aa(lp481
I1451
aI2068
aI405
aI2265
aI1327
aI2821
aI3092
aI2452
aI1024
aI1031
aa(lp482
I1451
aI1606
aI1867
aI2365
aI3494
aI2528
aI447
aI2377
aI288
aI3067
aI990
aI1031
aa(lp483
I1451
aI644
aI1756
aI2263
aI1267
aI2402
aI3116
aI427
aI978
aI1031
aa(lp484
I1451
aI3405
aI3385
aI2133
aI1282
aI441
aI2926
aI3539
aI2753
aI2186
aI1068
aI1031
aa(lp485
I1451
aI3405
aI1647
aI2361
aI1271
aI249
aI3204
aI2439
aI2550
aI2011
aI3249
aI1031
aa(lp486
I1451
aI3221
aI1759
aI2259
aI866
aI2885
aI2664
aI2424
aI2560
aI2225
aI1083
aI1031
aa(lp487
I1451
aI2249
aI1715
aI564
aI865
aI2515
aI2385
aI2600
aI2557
aI2449
aI1026
aI1031
aa(lp488
I1451
aI1478
aI1877
aI3410
aI1287
aI2864
aI2712
aI175
aI3284
aI2214
aI951
aI1031
aa(lp489
I1451
aI2091
aI632
aI566
aI1323
aI326
aI3005
aI340
aI2725
aI2194
aI1011
aI1031
aa(lp490
I1451
aI1617
aI1183
aI409
aI1374
aI7
aI2897
aI3537
aI2727
aI2220
aI968
aI1031
aa(lp491
I1451
aI64
aI1744
aI3429
aI1326
aI385
aI2659
aI2158
aI291
aI2187
aI1032
aI1031
aa(lp492
I1451
aI1678
aI727
aI1659
aI858
aI2404
aI3210
aI418
aI1049
aI1031
aa(lp493
I1451
aI1583
aI686
aI2021
aI1289
aI328
aI3147
aI2629
aI3295
aI3270
aI1102
aI1031
aa(lp494
I1451
aI1785
aI1654
aI2131
aI1321
aI2812
aI2656
aI1989
aI2544
aI3065
aI978
aI1031
aa(lp495
I1451
aI1435
aI1635
aI560
aI147
aI2825
aI2938
aI1982
aI2749
aI2015
aI1122
aI1031
aa(lp496
I1451
aI1582
aI3475
aI2115
aI1258
aI3102
aI2713
aI3340
aI3043
aI279
aI1066
aI1031
aa(lp497
I1451
aI1135
aI1760
aI2484
aI145
aI386
aI309
aI2161
aI2559
aI3254
aI1050
aI1031
aa(lp498
I1451
aI1589
aI1652
aI1899
aI325
aI2860
aI230
aI2422
aI364
aI499
aI1106
aI1031
aa(lp499
I1451
aI1596
aI1713
aI2035
aI2270
aI263
aI1253
aI3057
aI2739
aI2237
aI1048
aI1031
aa(lp500
I1451
aI1633
aI3466
aI621
aI1331
aI2518
aI20
aI3538
aI281
aI2206
aI964
aI1031
aa(lp501
I1451
aI1676
aI1754
aI2472
aI1267
aI2878
aI1250
aI3082
aI3128
aI1994
aI1114
aI1031
aa(lp502
I1451
aI1674
aI2105
aI623
aI861
aI3103
aI3169
aI1940
aI2739
aI412
aI1014
aI1031
aa(lp503
I1451
aI2466
aI1766
aI3413
aI1307
aI2816
aI231
aI2513
aI3025
aI2435
aI1099
aI1031
aa(lp504
I1451
aI1632
aI1852
aI2020
aI1379
aI3105
aI295
aI2453
aI1073
aI1031
aa(lp505
I1451
aI1585
aI1859
aI1908
aI1331
aI2885
aI3511
aI3317
aI2544
aI3269
aI3249
aI1031
aa(lp506
I1451
aI3217
aI1816
aI71
aI2369
aI2842
aI313
aI2771
aI971
aI1031
aa(lp507
I1451
aI2066
aI86
aI3412
aI884
aI2832
aI2660
aI1951
aI3246
aI2000
aI1038
aI1031
aa(lp508
I1451
aI1732
aI3387
aI1188
aI168
aI266
aI3160
aI2628
aI2741
aI2417
aI1108
aI1031
aa(lp509
I1451
aI65
aI1749
aI2259
aI3494
aI2883
aI2899
aI3078
aI2753
aI2171
aI1026
aI1031
aa(lp510
I1451
aI551
aI1854
aI721
aI2367
aI2518
aI1253
aI1931
aI358
aI2237
aI1100
aI1031
aa(lp511
I1451
aI760
aI636
aI619
aI2267
aI2859
aI2798
aI180
aI1114
aI1031
aa(lp512
I1451
aI1494
aI3465
aI2042
aI485
aI381
aI2925
aI1202
aI3039
aI2427
aI1030
aI1031
aa(lp513
I1451
aI2092
aI3386
aI2032
aI861
aI3496
aI888
aI182
aI1005
aI1031
aa(lp514
I1451
aI1527
aI1816
aI2115
aI3110
aI2805
aI2718
aI2459
aI1046
aI1031
aa(lp515
I1451
aI1825
aI3383
aI1660
aI1310
aI2825
aI44
aI3084
aI181
aI497
aI982
aI1031
aa(lp516
I1451
aI685
aI632
aI3425
aI1315
aI439
aI316
aI1952
aI2550
aI2170
aI3231
aI1031
aa(lp517
I1451
aI1700
aI686
aI919
aI1371
aI2870
aI2941
aI2420
aI3256
aI2172
aI964
aI1031
aa(lp518
I1451
aI2465
aI3381
aI2140
aI853
aI2407
aI3533
aI3315
aI958
aI1031
aa(lp519
I1451
aI1616
aI1771
aI2136
aI1308
aI264
aI139
aI427
aI2768
aI2243
aI1073
aI1031
aa(lp520
I1451
aI2246
aI1864
aI3428
aI2887
aI2522
aI3165
aI1988
aI363
aI3540
aI1105
aI1031
aa(lp521
I1451
aI1568
aI1769
aI2126
aI2889
aI2884
aI3099
aI94
aI978
aI1031
aa(lp522
I1451
aI2352
aI926
aI2040
aI1259
aI2518
aI2792
aI355
aI292
aI2451
aI986
aI1031
aa(lp523
I1451
aI1135
aI1644
aI624
aI1280
aI3180
aI3125
aI1230
aI2727
aI3225
aI1049
aI1031
aa(lp524
I1451
aI1695
aI1816
aI2024
aI864
aI246
aI267
aI2428
aI968
aI1031
aa(lp525
I1451
aI548
aI1750
aI1904
aI1323
aI3105
aI2663
aI3075
aI1028
aI1031
aa(lp526
I1451
aI1697
aI692
aI2472
aI1269
aI2523
aI2667
aI1244
aI2555
aI3067
aI996
aI1031
aa(lp527
I1451
aI1781
aI2114
aI2265
aI1367
aI385
aI2890
aI3565
aI2741
aI3053
aI972
aI1031
aa(lp528
I1451
aI773
aI1861
aI2022
aI1265
aI3174
aI2920
aI3067
aI3252
aI1031
aa(lp529
I1451
aI1592
aI1866
aI3476
aI1367
aI2876
aI2793
aI2419
aI1075
aI1031
aa(lp530
I1451
aI1725
aI1765
aI1884
aI1348
aI3495
aI2997
aI3253
aI1071
aI1031
aa(lp531
I1451
aI2089
aI3387
aI404
aI1315
aI382
aI311
aI419
aI187
aI2185
aI1057
aI1031
aa(lp532
I1451
aI803
aI1635
aI2265
aI879
aI2806
aI2392
aI3063
aI281
aI498
aI1089
aI1031
aa(lp533
I1451
aI1797
aI667
aI626
aI879
aI2823
aI323
aI3131
aI1116
aI1031
aa(lp534
I1451
aI1427
aI727
aI1891
aI1285
aI3104
aI2676
aI2431
aI3298
aI503
aI3250
aI1031
aa(lp535
I1451
aI3403
aI1749
aI631
aI1290
aI2819
aI3149
aI2455
aI987
aI1031
aa(lp536
I1451
aI2248
aI1862
aI625
aI1268
aI2878
aI3092
aI1228
aI2736
aI3070
aI1112
aI1031
aa(lp537
I1451
aI1690
aI2480
aI2021
aI873
aI241
aI234
aI422
aI2759
aI496
aI1120
aI1031
aa(lp538
I1451
aI1417
aI1180
aI2263
aI1357
aI2522
aI211
aI2583
aI3040
aI2434
aI1409
aI1031
aa(lp539
I1451
aI705
aI2124
aI2259
aI1379
aI381
aI2660
aI2432
aI1082
aI1031
aa(lp540
I1451
aI1581
aI1852
aI2266
aI877
aI460
aI300
aI1961
aI2552
aI2228
aI1043
aI1031
aa(lp541
I1451
aI2084
aI55
aI1905
aI403
aI2808
aI3375
aI3083
aI285
aI572
aI3549
aI1031
aa(lp542
I1451
aI780
aI691
aI3481
aI1360
aI2842
aI2669
aI414
aI1127
aI1031
aa(lp543
I1451
aI2086
aI2356
aI2472
aI1324
aI2645
aI3212
aI2615
aI3301
aI1667
aI3252
aI1031
aa(lp544
I1451
aI650
aI674
aI2134
aI1327
aI265
aI3006
aI1195
aI2769
aI3243
aI955
aI1031
aa(lp545
I1451
aI3399
aI729
aI2471
aI3111
aI2855
aI2391
aI593
aI3257
aI421
aI3267
aI1031
aa(lp546
I1451
aI704
aI55
aI1662
aI2370
aI2395
aI2953
aI346
aI3194
aI2221
aI1068
aI1031
aa(lp547
I1451
aI1608
aI1878
aI919
aI865
aI2866
aI139
aI355
aI3060
aI3072
aI1015
aI1031
aa(lp548
I1451
aI1697
aI667
aI2262
aI1303
aI254
aI3159
aI1944
aI3027
aI2422
aI952
aI1031
aa(lp549
I1451
aI1823
aI686
aI3429
aI1267
aI328
aI2656
aI3237
aI968
aI1031
aa(lp550
I1451
aI665
aI925
aI2019
aI1376
aI48
aI3505
aI1956
aI3257
aI2228
aI961
aI1031
aa(lp551
I1451
aI1413
aI636
aI1657
aI1348
aI2342
aI3114
aI2450
aI1128
aI1031
aa(lp552
I1451
aI1632
aI1869
aI2036
aI1295
aI241
aI2507
aI522
aI2745
aI2198
aI953
aI1031
aa(lp553
I1451
aI1810
aI3475
aI1903
aI871
aI2872
aI167
aI2417
aI3295
aI2184
aI1098
aI1031
aa(lp554
I1451
aI772
aI635
aI3482
aI883
aI385
aI3125
aI585
aI2728
aI2001
aI1103
aI1031
aa(lp555
I1451
aI1777
aI1646
aI3481
aI147
aI2810
aI214
aI2449
aI2750
aI496
aI131
aI1031
aa(lp556
I1451
aI817
aI2107
aI2484
aI886
aI5
aI3215
aI2166
aI3029
aI2011
aI1007
aI1031
aa(lp557
I1451
aI1798
aI1851
aI77
aI2889
aI243
aI2714
aI584
aI2733
aI2206
aI1116
aI1031
aa(lp558
I1451
aI1633
aI2251
aI2266
aI1289
aI2882
aI377
aI602
aI3194
aI2223
aI1084
aI1031
aa(lp559
I1451
aI1830
aI675
aI2471
aI881
aI439
aI3167
aI2774
aI3556
aI2441
aI1412
aI1031
aa(lp560
I1451
aI3456
aI1708
aI2360
aI3621
aI2807
aI2702
aI2567
aI3043
aI2349
aI1024
aI1031
aa(lp561
I1451
aI661
aI1878
aI1909
aI1274
aI2814
aI2953
aI2444
aI998
aI1031
aa(lp562
I1451
aI539
aI2358
aI2053
aI3420
aI328
aI2661
aI426
aI3246
aI2004
aI953
aI1031
aa(lp563
I1451
aI1726
aI3465
aI2142
aI1293
aI2813
aI3009
aI2168
aI190
aI3234
aI1089
aI1031
aa(lp564
I1451
aI1669
aI1858
aI2130
aI1365
aI2823
aI210
aI3081
aI3329
aI1031
aa(lp565
I1451
aI539
aI86
aI404
aI1346
aI2809
aI172
aI3255
aI967
aI1031
aa(lp566
I1451
aI550
aI1771
aI2020
aI1293
aI2404
aI444
aI914
aI3300
aI176
aI1102
aI1031
aa(lp567
I1451
aI3450
aI1811
aI2122
aI1376
aI2407
aI2992
aI3319
aI1032
aI1031
aa(lp568
I1451
aI753
aI1857
aI2363
aI1319
aI246
aI3195
aI1195
aI3129
aI2213
aI1122
aI1031
aa(lp569
I1451
aI1560
aI1748
aI2026
aI1309
aI254
aI275
aI1978
aI3028
aI2449
aI1104
aI1031
aa(lp570
I1451
aI1788
aI1715
aI2022
aI1273
aI2877
aI2669
aI1195
aI2751
aI2239
aI1069
aI1031
aa(lp571
I1451
aI1694
aI1770
aI2119
aI863
aI2820
aI2987
aI351
aI3029
aI2458
aI1113
aI1031
aa(lp572
I1451
aI137
aI2124
aI2365
aI875
aI2648
aI444
aI599
aI2562
aI426
aI995
aI1031
aa(lp573
I1451
aI815
aI1643
aI2028
aI1280
aI2646
aI204
aI175
aI2736
aI506
aI1412
aI1031
aa(lp574
I1451
aI706
aI1754
aI2134
aI2269
aI3174
aI2710
aI3079
aI1026
aI1031
aa(lp575
I1451
aI733
aI922
aI1900
aI1312
aI2399
aI235
aI3070
aI3043
aI2000
aI993
aI1031
aa(lp576
I1451
aI3400
aI1740
aI533
aI1273
aI169
aI2705
aI3081
aI288
aI2212
aI1097
aI1031
aa(lp577
I1451
aI80
aI1865
aI2258
aI853
aI244
aI374
aI1987
aI2741
aI180
aI953
aI1031
aa(lp578
I1451
aI2095
aI637
aI2361
aI3110
aI2806
aI165
aI174
aI1075
aI1031
aa(lp579
I1451
aI1677
aI1859
aI2472
aI1350
aI2857
aI3007
aI1946
aI3020
aI2423
aI1120
aI1031
aa(lp580
I1451
aI679
aI1851
aI2120
aI856
aI2813
aI3373
aI3248
aI1000
aI1031
aa(lp581
I1451
aI64
aI1653
aI71
aI1329
aI2873
aI2712
aI3064
aI3021
aI3552
aI1071
aI1031
aa(lp582
I1451
aI1583
aI686
aI2264
aI1350
aI327
aI2972
aI2429
aI281
aI2003
aI986
aI1031
aa(lp583
I1451
aI1786
aI1638
aI2017
aI1325
aI2866
aI296
aI2158
aI164
aI126
aI1094
aI1031
aa(lp584
I1451
aI2465
aI1643
aI558
aI1313
aI2883
aI166
aI2419
aI2739
aI2172
aI1000
aI1031
aa(lp585
I1451
aI1737
aI1720
aI486
aI836
aI2869
aI1253
aI2636
aI2543
aI3081
aI1024
aI1031
aa(lp586
I1451
aI700
aI1712
aI1881
aI876
aI2842
aI2897
aI2574
aI2769
aI3243
aI1013
aI1031
aa(lp587
I1451
aI1623
aI653
aI2042
aI1303
aI2825
aI323
aI344
aI2550
aI427
aI1130
aI1031
aa(lp588
I1451
aI2084
aI1857
aI2140
aI1285
aI2344
aI153
aI2424
aI974
aI1031
aa(lp589
I1451
aI790
aI2254
aI2360
aI847
aI382
aI2657
aI2443
aI290
aI120
aI3231
aI1031
aa(lp590
I1451
aI1553
aI1868
aI2360
aI1259
aI2832
aI2897
aI2624
aI3046
aI2230
aI1109
aI1031
aa(lp591
I1451
aI745
aI641
aI1892
aI238
aI2806
aI89
aI1226
aI3023
aI2444
aI973
aI1031
aa(lp592
I1451
aI2098
aI1184
aI1886
aI2269
aI2857
aI3152
aI427
aI978
aI1031
aa(lp593
I1451
aI1572
aI673
aI1890
aI1271
aI383
aI3531
aI2563
aI2560
aI2242
aI1121
aI1031
aa(lp594
I1451
aI1809
aI2110
aI2019
aI1315
aI2851
aI2394
aI162
aI2557
aI1994
aI1108
aI1031
aa(lp595
I1451
aI2050
aI488
aI1887
aI1271
aI2851
aI3214
aI3132
aI3556
aI510
aI978
aI1031
aa(lp596
I1451
aI1523
aI2254
aI1882
aI1338
aI2833
aI3208
aI1212
aI95
aI2438
aI1033
aI1031
aa(lp597
I1451
aI1672
aI537
aI2122
aI1279
aI2812
aI3117
aI3065
aI2749
aI2240
aI1023
aI1031
aa(lp598
I1451
aI1828
aI2112
aI1885
aI1258
aI3502
aI890
aI418
aI1410
aI1031
aa(lp599
I1451
aI1145
aI1766
aI1898
aI1294
aI2856
aI2707
aI94
aI3327
aI1031
aa(lp600
I1451
aI1141
aI3471
aI2365
aI3625
aI2855
aI2793
aI175
aI3033
aI2194
aI123
aI1031
aa(lp601
I1451
aI2067
aI1863
aI625
aI3110
aI2874
aI3153
aI426
aI2750
aI577
aI1108
aI1031
aa(lp602
I1451
aI1525
aI2482
aI2041
aI1304
aI439
aI3006
aI2433
aI3558
aI1056
aI1032
aI1031
aa(lp603
I1451
aI698
aI2254
aI717
aI845
aI2849
aI324
aI332
aI3044
aI2233
aI996
aI1031
aa(lp604
I1451
aI2467
aI2108
aI718
aI2369
aI2802
aI3163
aI1204
aI2561
aI421
aI3548
aI1031
aa(lp605
I1451
aI2100
aI1755
aI717
aI1290
aI2524
aI2902
aI348
aI190
aI2197
aI1025
aI1031
aa(lp606
I1451
aI1615
aI2112
aI622
aI1331
aI2830
aI2979
aI2418
aI2761
aI2237
aI1103
aI1031
aa(lp607
I1451
aI756
aI2253
aI2054
aI840
aI169
aI201
aI356
aI2729
aI2180
aI1001
aI1031
aa(lp608
I1451
aI2091
aI690
aI2126
aI854
aI2872
aI2392
aI278
aI1124
aI1031
aa(lp609
I1451
aI758
aI1868
aI2257
aI1352
aI2650
aI2955
aI2566
aI3554
aI3248
aI1098
aI1031
aa(lp610
I1451
aI752
aI636
aI2039
aI3493
aI2873
aI171
aI1205
aI3045
aI2205
aI3546
aI1031
aa(lp611
I1451
aI2067
aI723
aI2036
aI1267
aI3174
aI3169
aI2454
aI1104
aI1031
aa(lp612
I1451
aI643
aI1753
aI625
aI837
aI2645
aI2991
aI1238
aI3044
aI2425
aI1083
aI1031
aa(lp613
I1451
aI544
aI1714
aI3432
aI862
aI330
aI3090
aI2639
aI3283
aI3289
aI3544
aI1031
aa(lp614
I1451
aI665
aI1867
aI2122
aI1288
aI2825
aI3007
aI2581
aI3038
aI3349
aI1028
aI1031
aa(lp615
I1451
aI489
aI1772
aI3411
aI848
aI440
aI2791
aI2607
aI2734
aI2419
aI1062
aI1031
aa(lp616
I1451
aI82
aI1876
aI557
aI1345
aI2528
aI3113
aI357
aI372
aI279
aI3250
aI1031
aa(lp617
I1451
aI1802
aI1714
aI531
aI1284
aI2843
aI2672
aI903
aI3035
aI508
aI123
aI1031
aa(lp618
I1451
aI1137
aI1860
aI2054
aI1274
aI441
aI3208
aI332
aI2725
aI713
aI999
aI1031
aa(lp619
I1451
aI1561
aI670
aI2470
aI1377
aI2816
aI2540
aI414
aI2726
aI2212
aI1091
aI1031
aa(lp620
I1451
aI1810
aI1708
aI1885
aI1332
aI438
aI1254
aI3349
aI2542
aI2349
aI1109
aI1031
aa(lp621
I1451
aI2050
aI1811
aI2130
aI886
aI2651
aI3094
aI3053
aI1057
aI1031
aa(lp622
I1451
aI1482
aI1859
aI2261
aI856
aI2864
aI3374
aI3275
aI164
aI2430
aI1004
aI1031
aa(lp623
I1451
aI817
aI635
aI2035
aI852
aI2645
aI2510
aI2568
aI2745
aI513
aI1085
aI1031
aa(lp624
I1451
aI3436
aI1850
aI2264
aI1292
aI2838
aI2705
aI1947
aI2544
aI3057
aI961
aI1031
aa(lp625
I1451
aI1616
aI676
aI3425
aI862
aI437
aI2661
aI348
aI281
aI2171
aI1114
aI1031
aa(lp626
I1451
aI1498
aI1854
aI1881
aI1298
aI2812
aI3355
aI3083
aI181
aI2005
aI3250
aI1031
aa(lp627
I1451
aI1632
aI1748
aI2016
aI1346
aI3499
aI2895
aI3135
aI367
aI3133
aI1022
aI1031
aa(lp628
I1451
aI2064
aI1870
aI2265
aI1344
aI243
aI3143
aI3072
aI2733
aI2239
aI1072
aI1031
aa(lp629
I1451
aI2087
aI694
aI3430
aI867
aI2649
aI2946
aI906
aI2729
aI2192
aI1087
aI1031
aa(lp630
I1451
aI801
aI1637
aI70
aI868
aI2403
aI2697
aI426
aI1048
aI1031
aa(lp631
I1451
aI743
aI1650
aI1658
aI3177
aI2519
aI2934
aI2411
aI293
aI2015
aI1023
aI1031
aa(lp632
I1451
aI1728
aI1718
aI2035
aI1360
aI2811
aI3374
aI332
aI2749
aI3066
aI1115
aI1031
aa(lp633
I1451
aI3399
aI732
aI2118
aI1349
aI2840
aI3203
aI1241
aI2547
aI3067
aI987
aI1031
aa(lp634
I1451
aI2081
aI1651
aI2133
aI1335
aI2853
aI3122
aI2595
aI3193
aI424
aI987
aI1031
aa(lp635
I1451
aI1693
aI694
aI3425
aI1359
aI2818
aI199
aI2423
aI982
aI1031
aa(lp636
I1451
aI3405
aI1637
aI2133
aI1334
aI2522
aI392
aI2606
aI2545
aI577
aI974
aI1031
aa(lp637
I1451
aI741
aI1772
aI3412
aI3619
aI2839
aI3002
aI413
aI3032
aI2199
aI3329
aI1031
aa(lp638
I1451
aI1800
aI1851
aI2021
aI1288
aI3176
aI3099
aI2439
aI3129
aI3291
aI1097
aI1031
aa(lp639
I1451
aI3393
aI1186
aI2141
aI837
aI2882
aI2509
aI2421
aI294
aI3286
aI1115
aI1031
aa(lp640
I1451
aI1587
aI695
aI624
aI855
aI381
aI2716
aI177
aI2724
aI506
aI1045
aI1031
aa(lp641
I1451
aI1447
aI1716
aI720
aI1354
aI2822
aI3147
aI2432
aI1087
aI1031
aa(lp642
I1451
aI1435
aI3381
aI2042
aI842
aI2864
aI3190
aI1960
aI286
aI2202
aI1008
aI1031
aa(lp643
I1451
aI2057
aI1185
aI1188
aI1275
aI2651
aI204
aI174
aI2730
aI574
aI116
aI1031
aa(lp644
I1451
aI817
aI1179
aI2134
aI1268
aI240
aI1257
aI603
aI287
aI2183
aI1097
aI1031
aa(lp645
I1451
aI1844
aI1874
aI2362
aI3488
aI2406
aI3191
aI518
aI3345
aI3070
aI996
aI1031
aa(lp646
I1451
aI2072
aI674
aI2054
aI1294
aI2849
aI2979
aI2580
aI2737
aI2455
aI1101
aI1031
aa(lp647
I1451
aI2061
aI1752
aI2141
aI851
aI2867
aI205
aI174
aI3038
aI1997
aI1411
aI1031
aa(lp648
I1451
aI750
aI1648
aI455
aI1326
aI2802
aI2903
aI422
aI1126
aI1031
aa(lp649
I1451
aI1556
aI1753
aI2484
aI3106
aI2832
aI3116
aI427
aI292
aI2234
aI1028
aI1031
aa(lp650
I1451
aI818
aI2255
aI560
aI854
aI438
aI208
aI1945
aI2752
aI2423
aI1060
aI1031
aa(lp651
I1451
aI1682
aI1859
aI566
aI1277
aI2874
aI3210
aI1984
aI3026
aI1996
aI1102
aI1031
aa(lp652
I1451
aI549
aI633
aI2361
aI3423
aI2840
aI2800
aI522
aI3013
aI1992
aI1111
aI1031
aa(lp653
I1451
aI2048
aI1715
aI1907
aI3177
aI2859
aI2661
aI3059
aI979
aI1031
aa(lp654
I1451
aI3441
aI1707
aI2133
aI1324
aI3612
aI139
aI1964
aI367
aI3079
aI1098
aI1031
aa(lp655
I1451
aI798
aI1753
aI529
aI1347
aI2402
aI3362
aI2457
aI1129
aI1031
aa(lp656
I1451
aI1453
aI639
aI1885
aI1296
aI6
aI2917
aI2630
aI3194
aI2230
aI996
aI1031
aa(lp657
I1451
aI3402
aI2255
aI2053
aI884
aI2874
aI2921
aI3330
aI2745
aI3234
aI1123
aI1031
aa(lp658
I1451
aI2102
aI693
aI2257
aI1258
aI2861
aI2892
aI2616
aI3051
aI2450
aI1062
aI1031
aa(lp659
I1451
aI1673
aI1643
aI533
aI1293
aI251
aI3362
aI2427
aI1070
aI1031
aa(lp660
I1451
aI1478
aI730
aI2262
aI238
aI2648
aI267
aI3072
aI953
aI1031
aa(lp661
I1451
aI1840
aI1645
aI2133
aI1266
aI3495
aI2708
aI3083
aI197
aI2200
aI1132
aI1031
aa(lp662
I1451
aI1524
aI2481
aI1658
aI1290
aI7
aI3095
aI3571
aI2726
aI2185
aI958
aI1031
aa(lp663
I1451
aI1798
aI1759
aI2139
aI1374
aI259
aI2958
aI3059
aI2559
aI3234
aI1065
aI1031
aa(lp664
I1451
aI816
aI1641
aI1905
aI878
aI2883
aI212
aI3069
aI1095
aI1031
aa(lp665
I1451
aI1135
aI1649
aI2122
aI1361
aI259
aI2971
aI2772
aI1006
aI1031
aa(lp666
I1451
aI735
aI727
aI2046
aI1309
aI2844
aI236
aI127
aI2723
aI2188
aI1023
aI1031
aa(lp667
I1451
aI1494
aI667
aI553
aI1329
aI2839
aI2996
aI415
aI3284
aI2208
aI960
aI1031
aa(lp668
I1451
aI757
aI1712
aI921
aI874
aI3104
aI313
aI2639
aI3025
aI433
aI957
aI1031
aa(lp669
I1451
aI1560
aI1647
aI625
aI2887
aI3607
aI2783
aI3067
aI1101
aI1031
aa(lp670
I1451
aI649
aI1186
aI623
aI1343
aI2866
aI1248
aI98
aI197
aI2005
aI3252
aI1031
aa(lp671
I1451
aI1830
aI1721
aI2469
aI1325
aI2863
aI204
aI588
aI3060
aI2350
aI1033
aI1031
aa(lp672
I1451
aI943
aI1713
aI2469
aI3619
aI3613
aI2666
aI2581
aI3047
aI2218
aI973
aI1031
aa(lp673
I1451
aI1702
aI1757
aI2134
aI1316
aI2837
aI1255
aI2452
aI2766
aI508
aI1047
aI1031
aa(lp674
I1451
aI1610
aI1706
aI2040
aI2653
aI2849
aI2951
aI895
aI2560
aI2439
aI1017
aI1031
aa(lp675
I1451
aI2066
aI3473
aI2134
aI1366
aI3504
aI2896
aI176
aI2756
aI497
aI1050
aI1031
aa(lp676
I1451
aI1445
aI57
aI487
aI1289
aI243
aI2923
aI3075
aI2748
aI2241
aI1033
aI1031
aa(lp677
I1451
aI1617
aI1815
aI1882
aI485
aI2864
aI2936
aI3315
aI95
aI2230
aI1097
aI1031
aa(lp678
I1451
aI2086
aI691
aI2483
aI1299
aI2863
aI3146
aI2583
aI2723
aI3059
aI1059
aI1031
aa(lp679
I1451
aI816
aI1878
aI2258
aI1341
aI330
aI318
aI1242
aI95
aI413
aI957
aI1031
aa(lp680
I1451
aI3447
aI1816
aI2469
aI3281
aI263
aI303
aI163
aI2733
aI498
aI1063
aI1031
aa(lp681
I1451
aI1544
aI2113
aI77
aI1276
aI2866
aI2661
aI1205
aI3298
aI2201
aI965
aI1031
aa(lp682
I1451
aI1688
aI3385
aI2033
aI1264
aI2804
aI209
aI2331
aI288
aI515
aI1061
aI1031
aa(lp683
I1451
aI643
aI1707
aI2121
aI1352
aI2853
aI172
aI2439
aI3040
aI3291
aI1028
aI1031
aa(lp684
I1451
aI1801
aI726
aI487
aI1357
aI2645
aI3531
aI3333
aI3043
aI2010
aI1050
aI1031
aa(lp685
I1451
aI2091
aI1762
aI2364
aI454
aI6
aI2915
aI415
aI3346
aI2225
aI973
aI1031
aa(lp686
I1451
aI1698
aI3473
aI2016
aI1311
aI2845
aI201
aI3336
aI3031
aI2007
aI969
aI1031
aa(lp687
I1451
aI1448
aI2111
aI531
aI1320
aI48
aI154
aI2455
aI281
aI2221
aI1028
aI1031
aa(lp688
I1451
aI1485
aI1721
aI560
aI1302
aI3607
aI2896
aI3067
aI999
aI1031
aa(lp689
I1451
aI1553
aI3468
aI70
aI1314
aI2870
aI153
aI2441
aI1130
aI1031
aa(lp690
I1451
aI1525
aI725
aI3425
aI3279
aI2879
aI3095
aI1988
aI3048
aI3321
aI1070
aI1031
aa(lp691
I1451
aI1489
aI1865
aI560
aI854
aI2867
aI274
aI1958
aI3051
aI2228
aI963
aI1031
aa(lp692
I1451
aI736
aI678
aI553
aI1289
aI382
aI2991
aI176
aI3249
aI1031
aa(lp693
I1451
aI457
aI1813
aI1660
aI1304
aI2848
aI2698
aI1950
aI2737
aI2223
aI951
aI1031
aa(lp694
I1451
aI1533
aI691
aI1662
aI1335
aI2824
aI3374
aI2450
aI31
aI1031
aa(lp695
I1451
aI1779
aI1767
aI623
aI851
aI383
aI165
aI915
aI3284
aI3063
aI1411
aI1031
aa(lp696
I1451
aI781
aI1651
aI70
aI3111
aI3613
aI2896
aI2635
aI3043
aI498
aI1020
aI1031
aa(lp697
I1451
aI1794
aI632
aI2033
aI3187
aI2850
aI2990
aI2575
aI194
aI3080
aI991
aI1031
aa(lp698
I1451
aI1452
aI1818
aI2033
aI2653
aI2864
aI1257
aI173
aI3300
aI2201
aI1017
aI1031
aa(lp699
I1451
aI2077
aI2482
aI73
aI2367
aI2398
aI2655
aI22
aI3012
aI3079
aI965
aI1031
aa(lp700
I1451
aI1455
aI1760
aI2138
aI862
aI2857
aI226
aI414
aI3025
aI2460
aI1017
aI1031
aa(lp701
I1451
aI649
aI1872
aI2263
aI168
aI2822
aI3352
aI2418
aI370
aI3226
aI1088
aI1031
aa(lp702
I1451
aI1793
aI1878
aI721
aI3111
aI3609
aI321
aI3078
aI1004
aI1031
aa(lp703
I1451
aI3441
aI1634
aI2034
aI1349
aI260
aI2784
aI3253
aI3302
aI2195
aI981
aI1031
aa(lp704
I1451
aI1676
aI1183
aI2017
aI1375
aI2857
aI2792
aI2162
aI2758
aI3066
aI969
aI1031
aa(lp705
I1451
aI2084
aI1869
aI3411
aI1351
aI260
aI324
aI3087
aI2728
aI2349
aI1005
aI1031
aa(lp706
I1451
aI1845
aI1652
aI3485
aI144
aI383
aI3355
aI2578
aI361
aI3272
aI1080
aI1031
aa(lp707
I1451
aI3402
aI922
aI2018
aI3625
aI2644
aI3210
aI356
aI2769
aI2452
aI1093
aI1031
aa(lp708
I1451
aI1546
aI1743
aI1901
aI2889
aI264
aI297
aI1199
aI285
aI2202
aI1037
aI1031
aa(lp709
I1451
aI1620
aI694
aI2034
aI855
aI387
aI435
aI420
aI1029
aI1031
aa(lp710
I1451
aI1535
aI1654
aI1888
aI3624
aI245
aI2661
aI2621
aI187
aI2433
aI1069
aI1031
aa(lp711
I1451
aI2246
aI693
aI560
aI3111
aI253
aI2956
aI346
aI3024
aI3305
aI1113
aI1031
aa(lp712
I1451
aI1491
aI2255
aI1907
aI1305
aI3499
aI3169
aI2565
aI142
aI279
aI1051
aI1031
aa(lp713
I1451
aI747
aI1863
aI1191
aI837
aI382
aI89
aI184
aI1086
aI1031
aa(lp714
I1451
aI1828
aI2113
aI2364
aI1350
aI2884
aI2673
aI1245
aI3048
aI3076
aI1130
aI1031
aa(lp715
I1451
aI1532
aI1644
aI2133
aI1280
aI2885
aI2668
aI3253
aI3344
aI1056
aI981
aI1031
aa(lp716
I1451
aI1537
aI687
aI1909
aI1330
aI2524
aI2958
aI430
aI3041
aI2007
aI1002
aI1031
aa(lp717
I1451
aI682
aI633
aI2261
aI848
aI2823
aI2707
aI3132
aI2762
aI513
aI1088
aI1031
aa(lp718
I1451
aI3447
aI1635
aI2121
aI1367
aI2344
aI3358
aI2455
aI2551
aI3553
aI1084
aI1031
aa(lp719
I1451
aI1453
aI632
aI716
aI1327
aI2401
aI378
aI2444
aI2765
aI573
aI1071
aI1031
aa(lp720
I1451
aI1729
aI1863
aI1910
aI1266
aI2853
aI892
aI2449
aI2750
aI2202
aI1026
aI1031
aa(lp721
I1451
aI2351
aI1652
aI2483
aI238
aI3611
aI2791
aI593
aI2724
aI2425
aI1046
aI1031
aa(lp722
I1451
aI1565
aI1739
aI3428
aI1333
aI328
aI1252
aI3070
aI1110
aI1031
aa(lp723
I1451
aI1778
aI1711
aI2136
aI3420
aI2843
aI2914
aI2381
aI2560
aI2179
aI1075
aI1031
aa(lp724
I1451
aI1726
aI1739
aI3419
aI3621
aI2402
aI3137
aI3320
aI2733
aI495
aI1008
aI1031
aa(lp725
I1451
aI3458
aI1640
aI3431
aI873
aI2830
aI3098
aI2443
aI1020
aI1031
aa(lp726
I1451
aI1459
aI727
aI2261
aI848
aI2819
aI2978
aI1951
aI280
aI1998
aI980
aI1031
aa(lp727
I1451
aI1585
aI1714
aI3430
aI1308
aI2843
aI166
aI3134
aI2741
aI2194
aI1001
aI1031
aa(lp728
I1451
aI818
aI1815
aI1661
aI1305
aI254
aI228
aI2444
aI2542
aI1995
aI960
aI1031
aa(lp729
I1451
aI1826
aI1645
aI3418
aI2486
aI265
aI3214
aI2428
aI30
aI1031
aa(lp730
I1451
aI1828
aI1184
aI2363
aI1337
aI2874
aI2511
aI1194
aI3048
aI179
aI958
aI1031
aa(lp731
I1451
aI814
aI1642
aI535
aI875
aI2815
aI2998
aI2595
aI142
aI2444
aI1026
aI1031
aa(lp732
I1451
aI1796
aI1634
aI3418
aI2269
aI459
aI2891
aI2330
aI2556
aI3226
aI981
aI1031
aa(lp733
I1451
aI755
aI1711
aI617
aI238
aI259
aI268
aI3080
aI3244
aI1999
aI1102
aI1031
aa(lp734
I1451
aI1143
aI488
aI1657
aI1288
aI2405
aI2925
aI1243
aI3556
aI3234
aI999
aI1031
aa(lp735
I1451
aI1680
aI1186
aI2470
aI1354
aI3102
aI3372
aI3069
aI189
aI2213
aI1051
aI1031
aa(lp736
I1451
aI1676
aI1878
aI2055
aI1348
aI2519
aI2678
aI2427
aI980
aI1031
aa(lp737
I1451
aI1564
aI1816
aI2030
aI1320
aI2833
aI2784
aI3132
aI1050
aI1031
aa(lp738
I1451
aI1453
aI2359
aI2361
aI1293
aI3175
aI2937
aI2450
aI2754
aI492
aI1130
aI1031
aa(lp739
I1451
aI1564
aI640
aI2024
aI1369
aI2810
aI2959
aI32
aI194
aI2192
aI1096
aI1031
aa(lp740
I1451
aI1422
aI673
aI1888
aI3183
aI2879
aI2657
aI2628
aI195
aI2424
aI1411
aI1031
aa(lp741
I1451
aI657
aI1873
aI2031
aI1359
aI3504
aI230
aI426
aI1008
aI1031
aa(lp742
I1451
aI1477
aI1185
aI2263
aI870
aI2840
aI2909
aI2423
aI3052
aI1992
aI1126
aI1031
aa(lp743
I1451
aI752
aI1865
aI2128
aI883
aI2880
aI2968
aI584
aI371
aI2190
aI1057
aI1031
aa(lp744
I1451
aI665
aI1873
aI1902
aI1284
aI442
aI3003
aI2378
aI282
aI3059
aI996
aI1031
aa(lp745
I1451
aI810
aI1878
aI3477
aI1333
aI265
aI2508
aI414
aI982
aI1031
aa(lp746
I1451
aI2085
aI636
aI1902
aI1260
aI7
aI3278
aI586
aI194
aI2226
aI1019
aI1031
aa(lp747
I1451
aI1838
aI1756
aI716
aI1307
aI459
aI199
aI3083
aI2753
aI458
aI1027
aI1031
aa(lp748
I1451
aI1439
aI1719
aI2362
aI1311
aI2849
aI2957
aI3057
aI281
aI2207
aI1029
aI1031
aa(lp749
I1451
aI1427
aI2358
aI1899
aI2887
aI6
aI3005
aI2585
aI195
aI3349
aI1062
aI1031
aa(lp750
I1451
aI2245
aI923
aI71
aI1286
aI2832
aI3117
aI2603
aI3557
aI576
aI1009
aI1031
aa(lp751
I1451
aI2102
aI456
aI717
aI403
aI3605
aI1249
aI355
aI3013
aI2438
aI972
aI1031
aa(lp752
I1451
aI3451
aI3387
aI563
aI849
aI387
aI2654
aI3133
aI1007
aI1031
aa(lp753
I1451
aI795
aI1861
aI1886
aI2367
aI2342
aI2981
aI911
aI2729
aI2234
aI1003
aI1031
aa(lp754
I1451
aI1471
aI2109
aI2041
aI2372
aI3614
aI160
aI1233
aI190
aI3537
aI1120
aI1031
aa(lp755
I1451
aI1730
aI1651
aI2042
aI1288
aI330
aI317
aI2565
aI3035
aI3254
aI957
aI1031
aa(lp756
I1451
aI2067
aI2113
aI455
aI1371
aI2395
aI3505
aI3071
aI2733
aI2206
aI1031
aI1031
aa(lp757
I1451
aI1804
aI55
aI1899
aI1327
aI2809
aI3142
aI2429
aI1073
aI1031
aa(lp758
I1451
aI2067
aI1818
aI2136
aI839
aI240
aI2921
aI2163
aI3032
aI2202
aI1012
aI1031
aa(lp759
I1451
aI1831
aI695
aI2262
aI2886
aI3499
aI2942
aI2630
aI2747
aI3272
aI972
aI1031
aa(lp760
I1451
aI1565
aI1639
aI2470
aI1297
aI2645
aI2905
aI278
aI3035
aI509
aI1091
aI1031
aa(lp761
I1451
aI1611
aI1865
aI2054
aI876
aI249
aI2390
aI2613
aI2560
aI2171
aI1082
aI1031
aa(lp762
I1451
aI1828
aI2355
aI619
aI3185
aI2648
aI2948
aI276
aI364
aI2417
aI1051
aI1031
aa(lp763
I1451
aI1602
aI636
aI1659
aI147
aI2846
aI2998
aI3080
aI3048
aI2345
aI1024
aI1031
aa(lp764
I1451
aI1793
aI1711
aI2134
aI3621
aI3609
aI229
aI3073
aI1045
aI1031
aa(lp765
I1451
aI746
aI1770
aI623
aI145
aI2885
aI450
aI2421
aI1024
aI1031
aa(lp766
I1451
aI543
aI635
aI623
aI1319
aI3175
aI3374
aI3073
aI362
aI494
aI1031
aI1031
aa(lp767
I1451
aI2091
aI636
aI486
aI1286
aI3176
aI215
aI1968
aI2734
aI3242
aI1057
aI1031
aa(lp768
I1451
aI1579
aI488
aI3428
aI882
aI3607
aI2717
aI2340
aI3027
aI2444
aI1052
aI1031
aa(lp769
I1451
aI1554
aI2106
aI2031
aI1300
aI461
aI2920
aI2337
aI359
aI509
aI1023
aI1031
aa(lp770
I1451
aI2100
aI1864
aI1900
aI1267
aI264
aI2784
aI2423
aI957
aI1031
aa(lp771
I1451
aI1549
aI675
aI3476
aI3619
aI2850
aI3202
aI3537
aI2743
aI2218
aI1032
aI1031
aa(lp772
I1451
aI1474
aI1747
aI558
aI1264
aI2814
aI3125
aI3072
aI3560
aI1996
aI990
aI1031
aa(lp773
I1451
aI1483
aI1750
aI3419
aI2888
aI266
aI3533
aI3237
aI1057
aI1031
aa(lp774
I1451
aI2467
aI1643
aI567
aI2267
aI2824
aI3358
aI2335
aI3047
aI426
aI1024
aI1031
aa(lp775
I1451
aI768
aI1706
aI565
aI1303
aI2837
aI2950
aI916
aI2747
aI513
aI1052
aI1031
aa(lp776
I1451
aI2051
aI1856
aI3481
aI1271
aI328
aI2911
aI2570
aI2555
aI2208
aI958
aI1031
aa(lp777
I1451
aI1526
aI726
aI2362
aI1305
aI2856
aI157
aI2449
aI978
aI1031
aa(lp778
I1451
aI1780
aI726
aI2128
aI1368
aI2836
aI3099
aI2455
aI3013
aI498
aI1132
aI1031
aa(lp779
I1451
aI1540
aI1817
aI621
aI1280
aI382
aI2902
aI419
aI1047
aI1031
aa(lp780
I1451
aI1453
aI1813
aI625
aI876
aI2344
aI2979
aI2585
aI2754
aI3287
aI1057
aI1031
aa(lp781
I1451
aI1562
aI652
aI2028
aI111
aI2827
aI3009
aI2566
aI2544
aI492
aI1001
aI1031
aa(lp782
I1451
aI2088
aI1748
aI1892
aI1333
aI2523
aI2923
aI911
aI3048
aI94
aI1051
aI1031
aa(lp783
I1451
aI1846
aI456
aI70
aI1278
aI2882
aI3506
aI3253
aI1001
aI1031
aa(lp784
I1451
aI3402
aI1186
aI1881
aI863
aI250
aI2918
aI1236
aI181
aI414
aI1019
aI1031
aa(lp785
I1451
aI788
aI3470
aI2132
aI3625
aI2648
aI2510
aI1973
aI2729
aI3255
aI1046
aI1031
aa(lp786
I1451
aI816
aI677
aI2363
aI1280
aI2824
aI319
aI1239
aI2765
aI3270
aI3329
aI1031
aa(lp787
I1451
aI1738
aI1640
aI1657
aI3279
aI2515
aI2793
aI2382
aI3236
aI3079
aI991
aI1031
aa(lp788
I1451
aI548
aI58
aI1887
aI1355
aI146
aI2785
aI2606
aI2738
aI3243
aI3228
aI1031
aa(lp789
I1451
aI762
aI673
aI626
aI850
aI2815
aI2910
aI3561
aI2549
aI431
aI962
aI1031
aa(lp790
I1451
aI643
aI2113
aI1890
aI854
aI2869
aI2948
aI1978
aI3557
aI2243
aI1030
aI1031
aa(lp791
I1451
aI2069
aI1708
aI72
aI1356
aI2818
aI2783
aI176
aI3555
aI105
aI1059
aI1031
aa(lp792
I1451
aI3452
aI1746
aI2040
aI3111
aI2823
aI3375
aI2339
aI3295
aI427
aI973
aI1031
aa(lp793
I1451
aI1784
aI1754
aI561
aI1275
aI3103
aI3146
aI1221
aI292
aI2423
aI1128
aI1031
aa(lp794
I1451
aI759
aI2251
aI720
aI1278
aI2813
aI2696
aI1959
aI3038
aI3070
aI996
aI1031
aa(lp795
I1451
aI1497
aI641
aI535
aI1348
aI2649
aI2990
aI2776
aI3013
aI2172
aI1026
aI1031
aa(lp796
I1451
aI1143
aI1817
aI721
aI1370
aI3609
aI2980
aI1974
aI360
aI2770
aI1074
aI1031
aa(lp797
I1451
aI2352
aI1749
aI3430
aI1273
aI249
aI890
aI2606
aI195
aI2238
aI979
aI1031
aa(lp798
I1451
aI1670
aI725
aI1662
aI1369
aI241
aI2718
aI3330
aI972
aI1031
aa(lp799
I1451
aI1461
aI638
aI1885
aI2267
aI2400
aI2935
aI1212
aI2756
aI2409
aI1030
aI1031
aa(lp800
I1451
aI745
aI1812
aI1191
aI1360
aI2649
aI2657
aI2771
aI1036
aI1031
aa(lp801
I1451
aI1541
aI1764
aI1896
aI885
aI440
aI3165
aI429
aI121
aI2182
aI963
aI1031
aa(lp802
I1451
aI1550
aI1772
aI487
aI1340
aI2846
aI321
aI2595
aI187
aI2218
aI996
aI1031
aa(lp803
I1451
aI3446
aI1713
aI2117
aI2372
aI2395
aI2940
aI2415
aI164
aI3305
aI1088
aI1031
aa(lp804
I1451
aI1844
aI1762
aI718
aI1269
aI3611
aI2677
aI3076
aI1111
aI1031
aa(lp805
I1451
aI1703
aI641
aI2131
aI239
aI2651
aI3167
aI23
aI2727
aI2239
aI1113
aI1031
aa(lp806
I1451
aI1728
aI1749
aI1896
aI1374
aI2855
aI3534
aI2380
aI3558
aI3072
aI979
aI1031
aa(lp807
I1451
aI3463
aI2112
aI564
aI1295
aI2885
aI2897
aI1246
aI2556
aI2229
aI1009
aI1031
aa(lp808
I1451
aI1532
aI2255
aI2016
aI1379
aI3499
aI3163
aI714
aI369
aI3260
aI1087
aI1031
aa(lp809
I1451
aI1603
aI1636
aI2031
aI454
aI2811
aI887
aI346
aI27
aI163
aI1000
aI1031
aa(lp810
I1451
aI1579
aI1763
aI2259
aI1299
aI2395
aI2657
aI3571
aI280
aI713
aI998
aI1031
aa(lp811
I1451
aI820
aI3475
aI532
aI1317
aI3497
aI296
aI2337
aI2551
aI2013
aI1071
aI1031
aa(lp812
I1451
aI1523
aI1184
aI2041
aI1327
aI2650
aI2892
aI3255
aI3244
aI3304
aI1094
aI1031
aa(lp813
I1451
aI708
aI1858
aI616
aI870
aI3496
aI3147
aI2419
aI291
aI2228
aI131
aI1031
aa(lp814
I1451
aI1553
aI1874
aI2036
aI1289
aI2868
aI3142
aI2637
aI2740
aI122
aI952
aI1031
aa(lp815
I1451
aI1438
aI3385
aI2023
aI1377
aI2812
aI151
aI600
aI2546
aI2770
aI1108
aI1031
aa(lp816
I1451
aI1809
aI1716
aI716
aI1334
aI330
aI236
aI3085
aI31
aI1031
aa(lp817
I1451
aI1561
aI1749
aI1908
aI1333
aI2342
aI3120
aI32
aI2729
aI3270
aI1017
aI1031
aa(lp818
I1451
aI1498
aI1646
aI2023
aI454
aI2871
aI2930
aI2774
aI2741
aI3248
aI1111
aI1031
aa(lp819
I1451
aI1432
aI1865
aI2043
aI1347
aI240
aI3118
aI3333
aI1120
aI1031
aa(lp820
I1451
aI710
aI1753
aI1894
aI1335
aI2816
aI2781
aI419
aI1076
aI1031
aa(lp821
I1451
aI1453
aI639
aI2135
aI3188
aI245
aI2997
aI2456
aI994
aI1031
aa(lp822
I1451
aI1514
aI1714
aI2032
aI1325
aI3612
aI2541
aI1931
aI181
aI3240
aI955
aI1031
aa(lp823
I1451
aI3450
aI3472
aI2027
aI1325
aI2821
aI3151
aI278
aI1003
aI1031
aa(lp824
I1451
aI1591
aI1707
aI2471
aI851
aI2814
aI2677
aI2594
aI2561
aI2425
aI3545
aI1031
aa(lp825
I1451
aI489
aI86
aI2029
aI3489
aI2523
aI10
aI2451
aI2758
aI500
aI1099
aI1031
aa(lp826
I1451
aI1441
aI1712
aI487
aI1364
aI2877
aI3138
aI97
aI190
aI516
aI1016
aI1031
aa(lp827
I1451
aI1554
aI1717
aI2043
aI1309
aI2528
aI202
aI1215
aI3556
aI3133
aI994
aI1031
aa(lp828
I1451
aI1613
aI1772
aI3483
aI3280
aI3176
aI3364
aI176
aI30
aI1031
aa(lp829
I1451
aI1579
aI1866
aI1909
aI3185
aI2398
aI3153
aI426
aI3031
aI2190
aI1078
aI1031
aa(lp830
I1451
aI2058
aI1180
aI2024
aI1316
aI2855
aI2675
aI2427
aI26
aI3271
aI1121
aI1031
aa(lp831
I1451
aI3217
aI676
aI1887
aI847
aI461
aI204
aI2447
aI3236
aI2011
aI1112
aI1031
aa(lp832
I1451
aI1499
aI1873
aI2115
aI1273
aI3102
aI2978
aI421
aI3017
aI2205
aI1128
aI1031
aa(lp833
I1451
aI2059
aI1816
aI72
aI851
aI2836
aI10
aI97
aI195
aI3080
aI1089
aI1031
aa(lp834
I1451
aI802
aI3469
aI630
aI2486
aI243
aI2675
aI2512
aI3029
aI2182
aI1021
aI1031
aa(lp835
I1451
aI682
aI55
aI720
aI1272
aI3174
aI3376
aI415
aI1030
aI1031
aa(lp836
I1451
aI1480
aI3472
aI617
aI1283
aI2841
aI3189
aI3333
aI1092
aI1031
aa(lp837
I1451
aI1573
aI1645
aI2038
aI1336
aI2830
aI3377
aI909
aI3301
aI576
aI3228
aI1031
aa(lp838
I1451
aI1450
aI1654
aI3430
aI1357
aI2865
aI143
aI2411
aI2761
aI3226
aI1033
aI1031
aa(lp839
I1451
aI2064
aI653
aI2117
aI1282
aI247
aI227
aI1193
aI3044
aI3542
aI1004
aI1031
aa(lp840
I1451
aI1620
aI633
aI77
aI2372
aI265
aI2937
aI1199
aI3193
aI180
aI1057
aI1031
aa(lp841
I1451
aI1843
aI2107
aI720
aI1323
aI3496
aI3201
aI1944
aI3554
aI2002
aI1124
aI1031
aa(lp842
I1451
aI1602
aI1878
aI1892
aI3178
aI2852
aI2973
aI902
aI186
aI570
aI964
aI1031
aa(lp843
I1451
aI736
aI925
aI2139
aI3106
aI2868
aI2511
aI3565
aI3257
aI2425
aI1079
aI1031
aa(lp844
I1451
aI1778
aI1867
aI2135
aI881
aI2879
aI18
aI2432
aI996
aI1031
aa(lp845
I1451
aI773
aI674
aI2137
aI147
aI2524
aI3001
aI3566
aI2547
aI2000
aI1000
aI1031
aa(lp846
I1451
aI1684
aI3381
aI1890
aI1277
aI3614
aI3149
aI3562
aI3030
aI423
aI1032
aI1031
aa(lp847
I1451
aI1724
aI653
aI70
aI485
aI5
aI3207
aI584
aI3554
aI2418
aI1079
aI1031
aa(lp848
I1451
aI2073
aI1856
aI2045
aI3111
aI385
aI2715
aI336
aI3052
aI3537
aI821
aI1031
aa(lp849
I1451
aI2074
aI722
aI52
aI2372
aI3181
aI3531
aI2440
aI287
aI500
aI1116
aI1031
aa(lp850
I1451
aI1831
aI1651
aI1898
aI863
aI2804
aI3098
aI3248
aI1126
aI1031
aa(lp851
I1451
aI1725
aI2254
aI2042
aI881
aI2407
aI2659
aI163
aI1019
aI1031
aa(lp852
I1451
aI63
aI1859
aI77
aI1272
aI2865
aI161
aI2615
aI3298
aI2207
aI3249
aI1031
aa(lp853
I1451
aI1624
aI634
aI2126
aI843
aI2814
aI1255
aI425
aI2730
aI2348
aI986
aI1031
aa(lp854
I1451
aI1609
aI1745
aI2361
aI1276
aI2645
aI3163
aI2420
aI1117
aI1031
aa(lp855
I1451
aI802
aI652
aI455
aI3623
aI2879
aI3118
aI3088
aI2551
aI2226
aI991
aI1031
aa(lp856
I1451
aI1423
aI488
aI2138
aI1324
aI252
aI3125
aI2434
aI1129
aI1031
aa(lp857
I1451
aI2245
aI3472
aI3412
aI3423
aI2516
aI374
aI914
aI3300
aI2462
aI123
aI1031
aa(lp858
I1451
aI1780
aI2106
aI2483
aI1258
aI329
aI3375
aI32
aI2552
aI2012
aI1000
aI1031
aa(lp859
I1451
aI1578
aI1640
aI2258
aI1284
aI387
aI2798
aI2452
aI1015
aI1031
aa(lp860
I1451
aI784
aI1721
aI2127
aI1277
aI2875
aI2706
aI1986
aI3236
aI2423
aI967
aI1031
aa(lp861
I1451
aI3452
aI2250
aI2256
aI3491
aI2830
aI3598
aI1212
aI2551
aI2243
aI1106
aI1031
aa(lp862
I1451
aI1493
aI1713
aI3432
aI846
aI251
aI3001
aI3273
aI3033
aI433
aI3249
aI1031
aa(lp863
I1451
aI1809
aI652
aI619
aI1266
aI2522
aI202
aI3248
aI1113
aI1031
aa(lp864
I1451
aI744
aI2106
aI3410
aI2486
aI256
aI2701
aI2771
aI3249
aI1031
aa(lp865
I1451
aI1479
aI1646
aI1888
aI1356
aI2853
aI301
aI3073
aI3128
aI2205
aI1049
aI1031
aa(lp866
I1451
aI1673
aI1749
aI2032
aI1300
aI254
aI2509
aI2451
aI3301
aI2190
aI1088
aI1031
aa(lp867
I1451
aI3444
aI3472
aI1904
aI3178
aI2518
aI2978
aI2444
aI3036
aI2213
aI1024
aI1031
aa(lp868
I1451
aI748
aI1709
aI53
aI3108
aI2849
aI2695
aI3073
aI26
aI2179
aI3267
aI1031
aa(lp869
I1451
aI1800
aI1877
aI1889
aI1299
aI2400
aI272
aI3134
aI2738
aI2442
aI1019
aI1031
aa(lp870
I1451
aI756
aI2112
aI2020
aI3420
aI2652
aI2664
aI2459
aI3034
aI2240
aI992
aI1031
aa(lp871
I1451
aI2070
aI1646
aI2131
aI1311
aI2825
aI18
aI2597
aI195
aI2174
aI3547
aI1031
aa(lp872
I1451
aI1497
aI1740
aI2141
aI861
aI3612
aI2785
aI2449
aI957
aI1031
aa(lp873
I1451
aI1592
aI2107
aI1897
aI1329
aI2648
aI3126
aI2432
aI971
aI1031
aa(lp874
I1451
aI1797
aI1760
aI1902
aI1262
aI2816
aI3362
aI894
aI187
aI2443
aI986
aI1031
aa(lp875
I1451
aI1848
aI693
aI1908
aI879
aI253
aI3141
aI2583
aI3014
aI2423
aI1036
aI1031
aa(lp876
I1451
aI1612
aI725
aI624
aI1294
aI2814
aI2908
aI338
aI371
aI3131
aI1125
aI1031
aa(lp877
I1451
aI1525
aI1854
aI2142
aI1291
aI3497
aI449
aI1963
aI2729
aI1992
aI1064
aI1031
aa(lp878
I1451
aI1773
aI677
aI558
aI856
aI2813
aI2709
aI98
aI3043
aI3243
aI1123
aI1031
aa(lp879
I1451
aI1700
aI1643
aI2020
aI3184
aI2810
aI2654
aI2425
aI3030
aI120
aI1077
aI1031
aa(lp880
I1451
aI1514
aI2114
aI1885
aI3188
aI3174
aI3205
aI605
aI95
aI2232
aI1103
aI1031
aa(lp881
I1451
aI1574
aI1706
aI2134
aI3110
aI3499
aI172
aI32
aI3344
aI3552
aI1078
aI1031
aa(lp882
I1451
aI647
aI3380
aI1891
aI1277
aI240
aI2959
aI2567
aI3300
aI2216
aI1065
aI1031
aa(lp883
I1451
aI1606
aI1745
aI1659
aI855
aI2645
aI2936
aI2157
aI3039
aI414
aI953
aI1031
aa(lp884
I1451
aI3397
aI1745
aI2037
aI1373
aI259
aI165
aI430
aI366
aI109
aI957
aI1031
aa(lp885
I1451
aI3396
aI2107
aI1189
aI873
aI3174
aI3157
aI1975
aI3031
aI2348
aI3546
aI1031
aa(lp886
I1451
aI1831
aI671
aI1903
aI849
aI2868
aI204
aI3064
aI3301
aI3292
aI1070
aI1031
aa(lp887
I1451
aI1692
aI1707
aI617
aI2368
aI2859
aI2935
aI3132
aI962
aI1031
aa(lp888
I1451
aI1678
aI725
aI2033
aI871
aI3102
aI152
aI2167
aI3044
aI184
aI1121
aI1031
aa(lp889
I1451
aI1683
aI653
aI73
aI862
aI259
aI3373
aI2770
aI3249
aI1031
aa(lp890
I1451
aI681
aI1639
aI718
aI1277
aI2867
aI219
aI2451
aI1000
aI1031
aa(lp891
I1451
aI810
aI1772
aI1904
aI3108
aI2855
aI272
aI3348
aI1108
aI1031
aa(lp892
I1451
aI2090
aI1771
aI2484
aI325
aI2876
aI2946
aI2440
aI2755
aI2014
aI1076
aI1031
aa(lp893
I1451
aI1801
aI672
aI1881
aI845
aI3610
aI3116
aI2450
aI3017
aI130
aI1006
aI1031
aa(lp894
I1451
aI1774
aI2253
aI3430
aI860
aI2845
aI2786
aI2429
aI197
aI3291
aI1029
aI1031
aa(lp895
I1451
aI1788
aI1761
aI3415
aI869
aI2807
aI2387
aI1197
aI3018
aI3057
aI1114
aI1031
aa(lp896
I1451
aI3436
aI926
aI3432
aI147
aI386
aI160
aI334
aI2767
aI3317
aI3545
aI1031
aa(lp897
I1451
aI738
aI3468
aI1910
aI3178
aI439
aI2938
aI2434
aI3284
aI1992
aI30
aI1031
aa(lp898
I1451
aI735
aI1871
aI625
aI2486
aI3104
aI2983
aI2431
aI30
aI1031
aa(lp899
I1451
aI803
aI1709
aI2019
aI1369
aI2822
aI308
aI2420
aI1030
aI1031
aa(lp900
I1451
aI1550
aI3387
aI409
aI1367
aI2863
aI273
aI3065
aI194
aI500
aI1100
aI1031
aa(lp901
I1451
aI698
aI1766
aI3429
aI1269
aI3496
aI2979
aI2778
aI3246
aI3349
aI1016
aI1031
aa(lp902
I1451
aI814
aI1711
aI2471
aI870
aI148
aI1248
aI2458
aI193
aI2179
aI1098
aI1031
aa(lp903
I1451
aI542
aI676
aI2054
aI1314
aI263
aI2799
aI2772
aI1006
aI1031
aa(lp904
I1451
aI1427
aI488
aI3483
aI840
aI262
aI3579
aI3136
aI3037
aI2232
aI1022
aI1031
aa(lp905
I1451
aI2465
aI1769
aI2027
aI1318
aI243
aI313
aI3133
aI1028
aI1031
aa(lp906
I1451
aI1530
aI3468
aI3431
aI3110
aI386
aI3376
aI2568
aI373
aI3081
aI985
aI1031
aa(lp907
I1451
aI743
aI2357
aI2137
aI1293
aI440
aI143
aI2442
aI996
aI1031
aa(lp908
I1451
aI665
aI687
aI2045
aI1316
aI2873
aI2920
aI1239
aI2748
aI570
aI981
aI1031
aa(lp909
I1451
aI681
aI723
aI622
aI882
aI2528
aI3531
aI3316
aI2753
aI3553
aI1065
aI1031
aa(lp910
I1451
aI1510
aI728
aI3433
aI1344
aI2849
aI3150
aI2381
aI293
aI2461
aI3546
aI1031
aa(lp911
I1451
aI1606
aI3383
aI562
aI1320
aI2651
aI2914
aI597
aI2727
aI2450
aI951
aI1031
aa(lp912
I1451
aI2063
aI86
aI2259
aI2888
aI2652
aI172
aI1972
aI2742
aI517
aI1100
aI1031
aa(lp913
I1451
aI3453
aI1721
aI2034
aI870
aI3614
aI2711
aI2436
aI2761
aI498
aI1100
aI1031
aa(lp914
I1451
aI1828
aI1654
aI2032
aI1300
aI2857
aI87
aI1220
aI2748
aI2435
aI985
aI1031
aa(lp915
I1451
aI705
aI695
aI2021
aI1277
aI2863
aI3120
aI2167
aI3060
aI3058
aI1083
aI1031
aa(lp916
I1451
aI1570
aI1653
aI622
aI864
aI383
aI2956
aI1233
aI3042
aI2232
aI131
aI1031
aa(lp917
I1451
aI1509
aI3466
aI2037
aI1309
aI2402
aI2917
aI3085
aI2746
aI1667
aI1035
aI1031
aa(lp918
I1451
aI1585
aI1645
aI1189
aI1301
aI2847
aI235
aI3080
aI974
aI1031
aa(lp919
I1451
aI1541
aI636
aI721
aI1285
aI2830
aI2981
aI2425
aI989
aI1031
aa(lp920
I1451
aI66
aI676
aI1904
aI2886
aI2650
aI3603
aI3255
aI2732
aI513
aI1014
aI1031
aa(lp921
I1451
aI1839
aI2482
aI2361
aI2368
aI2844
aI447
aI2412
aI1029
aI1031
aa(lp922
I1451
aI761
aI1179
aI2140
aI1313
aI246
aI2952
aI2454
aI1131
aI1031
aa(lp923
I1451
aI1469
aI925
aI2117
aI838
aI2521
aI3574
aI2437
aI1090
aI1031
aa(lp924
I1451
aI1604
aI1641
aI630
aI1304
aI2403
aI212
aI1965
aI2731
aI490
aI989
aI1031
aa(lp925
I1451
aI767
aI1745
aI1889
aI1359
aI327
aI3357
aI463
aI2763
aI2439
aI996
aI1031
aa(lp926
I1451
aI1601
aI2357
aI2016
aI886
aI2342
aI308
aI278
aI1076
aI1031
aa(lp927
I1451
aI1569
aI689
aI2020
aI3185
aI2650
aI3531
aI2779
aI3556
aI2433
aI1060
aI1031
aa(lp928
I1451
aI2104
aI1772
aI720
aI1355
aI2873
aI3097
aI1233
aI2729
aI180
aI1064
aI1031
aa(lp929
I1451
aI1809
aI1654
aI1898
aI3279
aI2406
aI2697
aI426
aI31
aI1031
aa(lp930
I1451
aI1785
aI1183
aI1904
aI1278
aI2840
aI2909
aI3075
aI2544
aI2008
aI1124
aI1031
aa(lp931
I1451
aI1579
aI674
aI622
aI1379
aI460
aI2792
aI1981
aI2765
aI2191
aI1108
aI1031
aa(lp932
I1451
aI1591
aI1744
aI2040
aI3423
aI2829
aI2962
aI3076
aI1073
aI1031
aa(lp933
I1451
aI2089
aI488
aI1890
aI860
aI2821
aI2672
aI21
aI2745
aI3132
aI1108
aI1031
aa(lp934
I1451
aI798
aI1636
aI2017
aI3178
aI2805
aI3092
aI2608
aI3193
aI3227
aI1412
aI1031
aa(lp935
I1451
aI948
aI687
aI3426
aI1352
aI2872
aI311
aI2452
aI1002
aI1031
aa(lp936
I1451
aI2248
aI653
aI2470
aI866
aI3607
aI3009
aI2637
aI2549
aI2432
aI1085
aI1031
aa(lp937
I1451
aI2103
aI1880
aI718
aI1326
aI2869
aI3378
aI2594
aI371
aI2447
aI980
aI1031
aa(lp938
I1451
aI814
aI1637
aI531
aI1263
aI2864
aI3148
aI2429
aI972
aI1031
aa(lp939
I1451
aI795
aI1871
aI1910
aI1370
aI3607
aI2800
aI173
aI2767
aI417
aI1083
aI1031
aa(lp940
I1451
aI760
aI653
aI2470
aI168
aI2646
aI2796
aI3568
aI2731
aI2425
aI1132
aI1031
aa(lp941
I1451
aI763
aI58
aI630
aI3619
aI3502
aI3508
aI424
aI2738
aI572
aI982
aI1031
aa(lp942
I1451
aI659
aI926
aI3430
aI1358
aI382
aI3169
aI425
aI3045
aI2232
aI3327
aI1031
aa(lp943
I1451
aI542
aI1757
aI3426
aI1349
aI2847
aI2952
aI2446
aI1074
aI1031
aa(lp944
I1451
aI1805
aI3385
aI618
aI3488
aI259
aI389
aI2428
aI3013
aI2231
aI1112
aI1031
aa(lp945
I1451
aI1732
aI3382
aI3410
aI1305
aI48
aI2676
aI3059
aI1025
aI1031
aa(lp946
I1451
aI556
aI727
aI2122
aI1270
aI2825
aI323
aI3083
aI2730
aI2004
aI994
aI1031
aa(lp947
I1451
aI1735
aI1719
aI1658
aI1285
aI2850
aI237
aI3333
aI991
aI1031
aa(lp948
I1451
aI1833
aI3380
aI2035
aI1344
aI2866
aI2700
aI1980
aI2560
aI415
aI1092
aI1031
aa(lp949
I1451
aI684
aI1854
aI565
aI1319
aI2825
aI2795
aI897
aI292
aI3255
aI1028
aI1031
aa(lp950
I1451
aI684
aI729
aI1889
aI854
aI2825
aI2710
aI278
aI2762
aI2193
aI1065
aI1031
aa(lp951
I1451
aI802
aI1814
aI3476
aI2485
aI2840
aI232
aI2640
aI3130
aI2442
aI1007
aI1031
aa(lp952
I1451
aI663
aI723
aI630
aI2369
aI2650
aI206
aI3332
aI3018
aI135
aI1033
aI1031
aa(lp953
I1451
aI1735
aI1642
aI2017
aI884
aI2855
aI2787
aI3080
aI188
aI514
aI970
aI1031
aa(lp954
I1451
aI1501
aI1764
aI560
aI168
aI2805
aI3167
aI2428
aI3345
aI2180
aI1125
aI1031
aa(lp955
I1451
aI1623
aI56
aI1887
aI878
aI2810
aI150
aI1951
aI366
aI2437
aI998
aI1031
aa(lp956
I1451
aI1773
aI488
aI2026
aI3108
aI3502
aI3212
aI1207
aI187
aI499
aI1090
aI1031
aa(lp957
I1451
aI2247
aI670
aI2366
aI1350
aI2854
aI3112
aI2335
aI3128
aI2430
aI958
aI1031
aa(lp958
I1451
aI1532
aI1771
aI631
aI325
aI249
aI2666
aI1208
aI3061
aI509
aI3231
aI1031
aa(lp959
I1451
aI3443
aI1746
aI567
aI1329
aI2838
aI2654
aI1223
aI2766
aI2456
aI1077
aI1031
aa(lp960
I1451
aI1572
aI3383
aI2261
aI3281
aI2859
aI3602
aI33
aI3547
aI1031
aa(lp961
I1451
aI662
aI1710
aI1892
aI1309
aI2396
aI318
aI2604
aI3029
aI2420
aI953
aI1031
aa(lp962
I1451
aI1146
aI693
aI919
aI1372
aI3105
aI220
aI431
aI1103
aI1031
aa(lp963
I1451
aI2081
aI2107
aI717
aI1284
aI381
aI2696
aI2618
aI2754
aI490
aI1029
aI1031
aa(lp964
I1451
aI1437
aI1765
aI2054
aI3279
aI2399
aI2916
aI463
aI3555
aI3069
aI955
aI1031
aa(lp965
I1451
aI1145
aI1647
aI73
aI858
aI2813
aI3276
aI1955
aI2767
aI174
aI952
aI1031
aa(lp966
I1451
aI943
aI2359
aI2362
aI1361
aI2825
aI3204
aI2452
aI3039
aI1994
aI1030
aI1031
aa(lp967
I1451
aI1724
aI674
aI2034
aI1359
aI385
aI2784
aI602
aI285
aI2431
aI1044
aI1031
aa(lp968
I1451
aI1532
aI58
aI721
aI1328
aI330
aI312
aI179
aI1080
aI1031
aa(lp969
I1451
aI1494
aI724
aI2471
aI1364
aI3499
aI2955
aI2637
aI2559
aI2199
aI1122
aI1031
aa(lp970
I1451
aI1509
aI673
aI53
aI847
aI3613
aI2664
aI3078
aI2755
aI2202
aI1002
aI1031
aa(lp971
I1451
aI773
aI2482
aI2017
aI1298
aI3610
aI2911
aI2449
aI372
aI2219
aI1005
aI1031
aa(lp972
I1451
aI1819
aI2113
aI2138
aI1306
aI329
aI2979
aI3317
aI3051
aI572
aI982
aI1031
aa(lp973
I1451
aI1446
aI694
aI3410
aI3489
aI3102
aI3598
aI2447
aI2559
aI2346
aI1036
aI1031
aa(lp974
I1451
aI2099
aI1873
aI3415
aI325
aI2823
aI2390
aI2643
aI3559
aI119
aI3544
aI1031
aa(lp975
I1451
aI1571
aI3466
aI3410
aI3493
aI330
aI3119
aI1954
aI292
aI2228
aI1069
aI1031
aa(lp976
I1451
aI1433
aI2113
aI2469
aI238
aI2526
aI3202
aI427
aI2740
aI2235
aI1023
aI1031
aa(lp977
I1451
aI1575
aI672
aI3418
aI1278
aI265
aI3372
aI2447
aI1110
aI1031
aa(lp978
I1451
aI767
aI722
aI3477
aI3494
aI2397
aI1249
aI423
aI2763
aI2198
aI1044
aI1031
aa(lp979
I1451
aI1838
aI635
aI1881
aI2886
aI2812
aI321
aI3089
aI3051
aI3315
aI1021
aI1031
aa(lp980
I1451
aI1594
aI3381
aI1881
aI1366
aI265
aI154
aI2332
aI287
aI511
aI1091
aI1031
aa(lp981
I1451
aI806
aI676
aI1902
aI1260
aI2832
aI2507
aI1988
aI371
aI3079
aI3548
aI1031
aa(lp982
I1451
aI2100
aI1868
aI719
aI867
aI3499
aI3352
aI433
aI966
aI1031
aa(lp983
I1451
aI1672
aI2355
aI2139
aI1333
aI383
aI165
aI1199
aI2723
aI2189
aI1005
aI1031
aa(lp984
I1451
aI3400
aI2124
aI2028
aI2367
aI2802
aI3508
aI584
aI3556
aI2438
aI1030
aI1031
aa(lp985
I1451
aI1533
aI1641
aI2484
aI1314
aI2825
aI3002
aI2337
aI3192
aI2443
aI1049
aI1031
aa(lp986
I1451
aI1530
aI1713
aI3426
aI1379
aI2804
aI2898
aI1956
aI3051
aI2205
aI1092
aI1031
aa(lp987
I1451
aI703
aI636
aI719
aI1275
aI2815
aI3361
aI3330
aI3028
aI2190
aI30
aI1031
aa(lp988
I1451
aI751
aI1638
aI3429
aI848
aI254
aI161
aI415
aI1008
aI1031
aa(lp989
I1451
aI1724
aI1739
aI622
aI848
aI2851
aI271
aI1932
aI3044
aI3315
aI992
aI1031
aa(lp990
I1451
aI3403
aI2109
aI1909
aI1328
aI2837
aI3503
aI278
aI1004
aI1031
aa(lp991
I1451
aI656
aI1715
aI3433
aI1344
aI2839
aI318
aI3359
aI3026
aI2455
aI1028
aI1031
aa(lp992
I1451
aI1460
aI668
aI529
aI873
aI3504
aI2662
aI3338
aI288
aI2441
aI993
aI1031
aa(lp993
I1451
aI739
aI55
aI2259
aI1315
aI439
aI2791
aI2624
aI197
aI3071
aI116
aI1031
aa(lp994
I1451
aI1581
aI1760
aI2484
aI846
aI3610
aI224
aI2415
aI292
aI2460
aI3544
aI1031
aa(lp995
I1451
aI1470
aI456
aI3476
aI1321
aI2401
aI316
aI2626
aI186
aI2235
aI1129
aI1031
aa(lp996
I1451
aI1563
aI2480
aI3429
aI1287
aI3180
aI2507
aI2628
aI359
aI120
aI116
aI1031
aa(lp997
I1451
aI795
aI692
aI2142
aI1301
aI2522
aI2929
aI451
aI2737
aI94
aI1084
aI1031
aa(lp998
I1451
aI946
aI1765
aI2044
aI1296
aI3181
aI1248
aI2423
aI3346
aI511
aI978
aI1031
aa(lp999
I1451
aI1471
aI1877
aI3427
aI1304
aI2342
aI3124
aI2449
aI1077
aI1031
aa(lp1000
I1451
aI680
aI1813
aI53
aI1375
aI2845
aI317
aI2420
aI1029
aI1031
aa.