(lp0
(lp1
a(lp2
a(lp3
I643
aI1420
aI1436
aI1437
aI3393
aI3392
aI1627
aI1629
aI1628
aI3398
aI551
aI1439
aI644
aI647
aI1500
aI655
aI650
aI651
aI658
aI2063
aI1142
aI1143
aI1140
aI1141
aI1146
aI1147
aI1144
aI1145
aI1148
aI1782
aI761
aI1786
aI1787
aI1848
aI679
aI1810
aI1819
aI646
aI809
aI808
aI803
aI802
aI801
aI800
aI807
aI806
aI805
aI804
aI1775
aI1774
aI1777
aI1776
aI1773
aI1779
aI1778
aI1550
aI1557
aI538
aI3452
aI3453
aI3450
aI3451
aI3456
aI3457
aI3454
aI3455
aI1425
aI1807
aI1806
aI1805
aI1804
aI1803
aI1802
aI1801
aI1800
aI1809
aI1808
aI818
aI819
aI810
aI811
aI812
aI813
aI814
aI815
aI816
aI817
aI1498
aI1625
aI3217
aI1630
aI2466
aI1433
aI3400
aI1832
aI1833
aI1830
aI1831
aI1836
aI1837
aI1834
aI1835
aI1838
aI1839
aI820
aI1483
aI1482
aI1481
aI1480
aI1487
aI1486
aI1139
aI1138
aI1133
aI1137
aI1136
aI1135
aI1471
aI685
aI684
aI683
aI682
aI1829
aI1828
aI1825
aI1824
aI1827
aI1826
aI1821
aI1820
aI1823
aI1822
aI784
aI785
aI786
aI787
aI1728
aI1729
aI1726
aI1727
aI1724
aI1725
aI788
aI789
aI65
aI1458
aI1459
aI1722
aI1723
aI681
aI680
aI62
aI64
aI1457
aI1424
aI1426
aI1632
aI1429
aI1428
aI1738
aI1731
aI1730
aI1733
aI1732
aI1735
aI1734
aI1737
aI1736
aI796
aI660
aI1447
aI1446
aI1443
aI1449
aI1448
aI1624
aI790
aI1456
aI1451
aI1843
aI1842
aI1841
aI1840
aI1847
aI1846
aI1845
aI1844
aI3458
aI3459
aI1799
aI1791
aI1795
aI1794
aI1490
aI1472
aI1473
aI1470
aI1476
aI1477
aI1474
aI1475
aI1494
aI1478
aI1479
aI1495
aI1499
aI60
aI3449
aI657
aI63
aI778
aI663
aI662
aI1469
aI1465
aI1467
aI1461
aI1460
aI767
aI3445
aI3403
aI3443
aI2103
aI645
aI783
aI649
aI648
aI1619
aI1780
aI1783
aI1784
aI1785
aI1622
aI1418
aI1419
aI1413
aI1414
aI1415
aI1416
aI1417
aI1621
aI656
aI1620
aI1792
aI1626
aI1485
aI950
aI61
aI666
aI665
aI664
aI1790
aI661
aI3389
aI1491
aI696
aI1631
aI1492
aI1539
aI1493
aI1468
aI3464
aI1464
aI3463
aI1496
aI3462
aI1466
aI2064
aI1497
aI1454
aI1455
aI944
aI943
aI642
aI1450
aI137
aI1452
aI1793
aI82
aI83
aI80
aI81
aI410
aI1633
aI3390
aI1434
aI1435
aI1432
aI1430
aI1431
aI3399
aI1438
aI1453
aI654
aI1501
aI948
aI949
aI946
aI947
aI945
aI758
aI1849
aI1134
aI1421
aI1423
aI1422
aI1427
aI733
aI735
aI734
aI736
aI1514
aI3395
aI1798
aI3397
aI3396
aI1445
aI1444
aI1442
aI1441
aI1440
aI1797
aI1796
aI3220
aI3394
aI3218
aI3219
aI1781
aI659
aI1623
aI1484
aI1489
aI1488
aI1788
aI797
aI795
aI794
aI1789
aI793
aI792
aI791
aa(lp4
I2047
aI2048
aI2049
aI555
aI554
aI556
aI550
aI552
aI1579
aI1578
aI1573
aI1572
aI1577
aI1576
aI1575
aI1574
aI3436
aI2051
aI2050
aI2052
aI2057
aI2059
aI2058
aI1618
aI1616
aI1617
aI1613
aI1610
aI1611
aI769
aI1547
aI1545
aI1542
aI1543
aI1540
aI1541
aI698
aI1548
aI1549
aI542
aI543
aI540
aI541
aI546
aI547
aI544
aI545
aI548
aI549
aI1609
aI1608
aI1601
aI1600
aI1603
aI1605
aI1604
aI1607
aI1606
aI1551
aI1553
aI1552
aI1555
aI1554
aI1556
aI539
aI1558
aI1680
aI1527
aI1700
aI1701
aI1702
aI1704
aI747
aI2465
aI2467
aI2468
aI3401
aI2088
aI2089
aI2082
aI2081
aI2086
aI2087
aI2084
aI2085
aI798
aI1535
aI1561
aI1534
aI1571
aI1570
aI2095
aI2094
aI2097
aI2096
aI2091
aI2090
aI2093
aI2092
aI2099
aI2098
aI780
aI781
aI66
aI1588
aI1589
aI1582
aI1583
aI1580
aI1581
aI1586
aI1584
aI1585
aI1530
aI753
aI752
aI751
aI750
aI757
aI756
aI755
aI754
aI759
aI1597
aI1596
aI1593
aI1599
aI489
aI1564
aI1565
aI1595
aI2463
aI740
aI741
aI742
aI743
aI744
aI745
aI746
aI748
aI749
aI1697
aI1694
aI1695
aI1692
aI1693
aI1690
aI1691
aI1698
aI1699
aI1703
aI1705
aI1511
aI1602
aI1559
aI3448
aI3446
aI3441
aI3440
aI775
aI774
aI777
aI776
aI771
aI770
aI773
aI772
aI779
aI1681
aI1683
aI1682
aI1685
aI1684
aI1687
aI1686
aI1689
aI1688
aI67
aI2060
aI3444
aI3447
aI3442
aI3402
aI3405
aI3407
aI1615
aI1521
aI1532
aI2102
aI2101
aI2100
aI2104
aI1560
aI1536
aI768
aI1612
aI760
aI764
aI765
aI707
aI1678
aI1679
aI1674
aI1675
aI1676
aI1677
aI1670
aI1671
aI1672
aI1673
aI1533
aI1531
aI1524
aI1525
aI1520
aI1522
aI1523
aI1528
aI1529
aI2352
aI2353
aI2351
aI1544
aI711
aI710
aI1669
aI1546
aI697
aI1537
aI1538
aI1591
aI1590
aI708
aI709
aI704
aI705
aI706
aI700
aI701
aI702
aI703
aI762
aI763
aI3216
aI457
aI766
aI1509
aI1594
aI1592
aI1598
aI2248
aI2249
aI2244
aI2245
aI2246
aI2247
aI2068
aI2069
aI2061
aI2062
aI2065
aI2066
aI2067
aI1526
aI737
aI739
aI738
aI1519
aI1518
aI1515
aI1517
aI1516
aI1510
aI1513
aI1512
aI3439
aI1562
aI1563
aI1566
aI2079
aI2078
aI2073
aI2072
aI2071
aI2070
aI2077
aI2076
aI2075
aI2074
aI3221
aI1614
aI1568
aI1569
aI1587
aI1567
aa(lp5
I1653
aI1759
aI1758
aI1757
aI1756
aI1755
aI1754
aI1753
aI1752
aI1751
aI1750
aI1179
aI689
aI688
aI687
aI686
aI652
aI653
aI1769
aI1762
aI1763
aI1760
aI1761
aI1766
aI1767
aI1764
aI1765
aI692
aI690
aI1814
aI1815
aI1816
aI1817
aI1811
aI1812
aI1813
aI1818
aI670
aI671
aI1771
aI1770
aI1772
aI58
aI55
aI57
aI56
aI537
aI536
aI1706
aI1707
aI1708
aI2481
aI1713
aI1711
aI1710
aI1717
aI1716
aI1715
aI1719
aI1718
aI926
aI678
aI922
aI923
aI925
aI3475
aI3470
aI3471
aI3472
aI3473
aI1720
aI1721
aI405
aI633
aI636
aI637
aI638
aI639
aI640
aI1858
aI1859
aI1850
aI1851
aI1852
aI1854
aI1855
aI1856
aI1857
aI3465
aI1739
aI634
aI635
aI488
aI695
aI641
aI1709
aI1876
aI1877
aI1874
aI1875
aI1872
aI1873
aI1870
aI1871
aI1878
aI1879
aI2110
aI2111
aI2114
aI2113
aI668
aI667
aI632
aI1861
aI1860
aI1863
aI1862
aI1865
aI1864
aI1867
aI1866
aI1869
aI1868
aI2109
aI2108
aI2107
aI2106
aI2105
aI674
aI675
aI676
aI677
aI672
aI673
aI2254
aI2358
aI2359
aI2356
aI2357
aI2354
aI2355
aI3386
aI3387
aI3385
aI3382
aI3383
aI3380
aI3381
aI693
aI691
aI694
aI3466
aI3469
aI3468
aI2123
aI2124
aI86
aI1652
aI1650
aI1651
aI1654
aI1634
aI1636
aI1637
aI456
aI1880
aI2482
aI2480
aI1748
aI1645
aI1644
aI1647
aI1646
aI1641
aI1640
aI1643
aI1642
aI1649
aI1648
aI1742
aI1743
aI731
aI730
aI1749
aI2112
aI2255
aI2253
aI2252
aI2251
aI2250
aI1635
aI1638
aI1639
aI1186
aI1184
aI1185
aI1182
aI1183
aI1180
aI726
aI727
aI724
aI725
aI722
aI723
aI1744
aI1745
aI1746
aI1747
aI1740
aI1741
aI728
aI729
aI1712
aI732
aI1714
aa(lp6
I2262
aI2263
aI2260
aI2261
aI2266
aI2264
aI2265
aI2046
aI2044
aI2045
aI2042
aI2043
aI2040
aI2041
aI559
aI558
aI557
aI553
aI1191
aI3430
aI3431
aI623
aI3433
aI409
aI455
aI2053
aI2055
aI2054
aI2056
aI53
aI52
aI535
aI533
aI532
aI531
aI529
aI921
aI622
aI621
aI620
aI627
aI626
aI625
aI624
aI628
aI3477
aI2142
aI2141
aI2140
aI3476
aI404
aI2136
aI2137
aI2138
aI2139
aI3481
aI3480
aI3483
aI3482
aI3485
aI919
aI487
aI486
aI1908
aI1909
aI1906
aI1907
aI1904
aI1905
aI1902
aI1903
aI1900
aI1901
aI618
aI619
aI616
aI617
aI2115
aI2116
aI1910
aI2024
aI2025
aI2026
aI2027
aI2020
aI2021
aI2022
aI2117
aI2028
aI2029
aI77
aI73
aI72
aI71
aI70
aI2023
aI630
aI2366
aI2365
aI2364
aI2363
aI2362
aI2361
aI2360
aI2037
aI2036
aI2035
aI2031
aI2030
aI2039
aI2038
aI1655
aI3412
aI3413
aI1898
aI1899
aI1894
aI1895
aI1896
aI1897
aI1890
aI1891
aI1892
aI1893
aI2134
aI2135
aI2132
aI2133
aI2130
aI2131
aI2033
aI3429
aI3428
aI3427
aI3426
aI3425
aI3424
aI2034
aI2118
aI719
aI718
aI717
aI716
aI1662
aI1661
aI1660
aI2032
aI2119
aI2469
aI1889
aI1888
aI1887
aI1886
aI1885
aI1884
aI1882
aI1881
aI2121
aI2120
aI2122
aI2127
aI2126
aI2129
aI2128
aI3415
aI3418
aI3419
aI2019
aI2018
aI2017
aI2016
aI1658
aI1659
aI1656
aI1657
aI631
aI2484
aI2483
aI3410
aI3411
aI2259
aI2258
aI2257
aI2256
aI2472
aI2471
aI2470
aI3432
aI568
aI569
aI560
aI561
aI562
aI563
aI564
aI565
aI566
aI567
aI1188
aI1189
aI720
aI721
aa(lp7
I2268
aI2269
aI2267
aI1285
aI1284
aI1287
aI1281
aI1280
aI1283
aI1282
aI879
aI1289
aI1288
aI1373
aI1372
aI1375
aI1374
aI1377
aI1379
aI1378
aI1342
aI1343
aI454
aI1346
aI1347
aI2270
aI1362
aI168
aI238
aI239
aI1
aI147
aI144
aI145
aI1270
aI1271
aI1272
aI1275
aI1276
aI1277
aI2886
aI2887
aI2888
aI2889
aI2
aI1286
aI836
aI837
aI3494
aI3493
aI3491
aI3279
aI838
aI839
aI1371
aI1370
aI403
aI1357
aI3489
aI3488
aI3487
aI847
aI846
aI844
aI843
aI842
aI840
aI849
aI848
aI3108
aI3106
aI1355
aI485
aI1354
aI854
aI855
aI856
aI857
aI850
aI851
aI852
aI853
aI858
aI859
aI1278
aI1279
aI3111
aI3110
aI1304
aI1305
aI1306
aI1307
aI1300
aI1301
aI1302
aI1303
aI1308
aI1309
aI2370
aI2371
aI2372
aI3281
aI869
aI868
aI861
aI860
aI863
aI867
aI866
aI883
aI882
aI881
aI880
aI886
aI885
aI884
aI1269
aI1262
aI1261
aI1260
aI1265
aI3280
aI1317
aI1316
aI1315
aI1314
aI1313
aI1312
aI1311
aI1310
aI1319
aI1318
aI862
aI864
aI1335
aI1334
aI1337
aI1336
aI1331
aI1330
aI1333
aI1332
aI3617
aI2369
aI2368
aI2367
aI865
aI878
aI876
aI877
aI874
aI875
aI872
aI873
aI870
aI871
aI1322
aI1323
aI1320
aI1321
aI1326
aI1327
aI1324
aI1325
aI1328
aI1329
aI1258
aI1259
aI3423
aI3420
aI1268
aI1263
aI1267
aI1264
aI1339
aI1338
aI845
aI2653
aI1349
aI1348
aI1344
aI1345
aI1266
aI1376
aI325
aI3621
aI3623
aI3622
aI3625
aI3624
aI1340
aI1341
aI2486
aI2485
aI1359
aI1358
aI1353
aI1352
aI1351
aI1350
aI1356
aI1273
aI1274
aI3184
aI3185
aI3186
aI3187
aI3183
aI3188
aI3109
aI3107
aI3619
aI1295
aI111
aI3179
aI3178
aI3177
aI1366
aI1298
aI1299
aI1292
aI1293
aI1290
aI1291
aI1296
aI1297
aI1294
aI1361
aI1367
aI1364
aI1365
aI1360
aI1368
aI1369
aa(lp8
I2836
aI2860
aI2861
aI2862
aI2863
aI2866
aI2867
aI2819
aI245
aI244
aI247
aI246
aI241
aI240
aI243
aI249
aI2873
aI2872
aI2871
aI2870
aI2877
aI2876
aI2875
aI2874
aI2879
aI2878
aI2402
aI381
aI382
aI383
aI385
aI386
aI387
aI259
aI253
aI250
aI251
aI256
aI254
aI2400
aI169
aI2518
aI2519
aI2514
aI2515
aI2516
aI2848
aI2849
aI2846
aI2847
aI2844
aI2845
aI2842
aI2843
aI2840
aI2841
aI2859
aI2851
aI2850
aI2853
aI2855
aI2854
aI2857
aI2856
aI438
aI439
aI437
aI2864
aI2865
aI2868
aI2869
aI146
aI148
aI2882
aI2883
aI2880
aI2884
aI2885
aI3499
aI3496
aI3497
aI3495
aI2524
aI2526
aI2521
aI2520
aI2523
aI2522
aI2528
aI252
aI2396
aI2397
aI2395
aI2398
aI2399
aI3104
aI3105
aI3101
aI3102
aI3103
aI2401
aI460
aI6
aI7
aI3610
aI3611
aI3614
aI3607
aI3605
aI3609
aI2648
aI2649
aI2644
aI2645
aI2646
aI2647
aI2852
aI2828
aI2829
aI2824
aI2825
aI2826
aI2827
aI2820
aI2821
aI2822
aI2823
aI442
aI441
aI440
aI330
aI2344
aI2343
aI2342
aI2651
aI2650
aI2839
aI2838
aI2837
aI2834
aI2833
aI2832
aI459
aI2815
aI2814
aI326
aI327
aI328
aI329
aI2818
aI2652
aI2808
aI2809
aI2802
aI2803
aI2806
aI2807
aI2804
aI2805
aI2406
aI2407
aI2404
aI2405
aI2403
aI461
aI3180
aI3181
aI3182
aI3612
aI3613
aI2830
aI5
aI263
aI262
aI260
aI266
aI265
aI264
aI3502
aI3504
aI2816
aI2811
aI2810
aI2813
aI2812
aI3175
aI3174
aI3176
aI48
aa(lp9
I2918
aI2919
aI298
aI299
aI296
aI297
aI295
aI270
aI271
aI272
aI273
aI274
aI275
aI3211
aI3150
aI3155
aI3154
aI3159
aI3512
aI3511
aI91
aI90
aI3204
aI3209
aI3208
aI3213
aI378
aI374
aI377
aI3093
aI3205
aI392
aI391
aI390
aI172
aI171
aI170
aI3596
aI3529
aI2699
aI2697
aI2696
aI2695
aI3355
aI3357
aI3353
aI3352
aI3358
aI2967
aI2969
aI2968
aI389
aI3215
aI3210
aI165
aI166
aI167
aI160
aI161
aI3212
aI2510
aI2511
aI2797
aI3531
aI3533
aI3534
aI2795
aI321
aI2998
aI2999
aI2995
aI2992
aI2993
aI2994
aI2996
aI2997
aI229
aI227
aI226
aI225
aI223
aI221
aI220
aI151
aI150
aI153
aI152
aI155
aI154
aI157
aI156
aI159
aI158
aI2509
aI2508
aI2507
aI2506
aI2722
aI2721
aI2720
aI1257
aI3207
aI1250
aI3206
aI1251
aI3203
aI3202
aI2989
aI2988
aI2983
aI2982
aI2981
aI2980
aI2987
aI2986
aI2985
aI2984
aI435
aI3162
aI3163
aI3160
aI3161
aI234
aI235
aI236
aI237
aI230
aI231
aI232
aI233
aI143
aI140
aI2539
aI2712
aI2713
aI2710
aI2711
aI2716
aI2717
aI2714
aI2715
aI2718
aI2719
aI3090
aI3091
aI3096
aI228
aI3097
aI2790
aI3010
aI3011
aI11
aI10
aI19
aI18
aI3158
aI201
aI200
aI203
aI202
aI205
aI204
aI207
aI206
aI209
aI208
aI3190
aI2709
aI2708
aI2705
aI2704
aI2707
aI2706
aI2701
aI2700
aI2703
aI2702
aI3278
aI2937
aI3005
aI3007
aI3001
aI3002
aI3009
aI3008
aI2899
aI2895
aI2894
aI2897
aI2896
aI2891
aI2890
aI2893
aI2892
aI2794
aI216
aI217
aI214
aI215
aI212
aI213
aI210
aI211
aI219
aI2394
aI2392
aI2393
aI2390
aI2391
aI3003
aI3166
aI3167
aI3164
aI3165
aI3361
aI2958
aI2959
aI2954
aI2955
aI2956
aI2957
aI2951
aI2952
aI2953
aI224
aI3100
aI2898
aI199
aI198
aI2541
aI2540
aI3006
aI2383
aI2385
aI2387
aI2386
aI2389
aI2388
aI3580
aI3145
aI2948
aI2947
aI2946
aI2945
aI2944
aI2943
aI2942
aI2941
aI2940
aI2917
aI3119
aI3118
aI3117
aI3116
aI3115
aI3114
aI3113
aI3112
aI20
aI3599
aI3598
aI3144
aI887
aI889
aI888
aI3148
aI3149
aI2972
aI2973
aI2970
aI2976
aI2977
aI2974
aI2975
aI3122
aI3120
aI3121
aI3126
aI3127
aI3124
aI3276
aI3277
aI3123
aI319
aI313
aI312
aI311
aI310
aI317
aI316
aI3201
aI9
aI890
aI891
aI892
aI3095
aI2964
aI2966
aI2961
aI2960
aI2963
aI2962
aI3137
aI3139
aI3138
aI1254
aI1255
aI1253
aI308
aI309
aI300
aI301
aI302
aI303
aI2978
aI2979
aI2971
aI3603
aI3602
aI3601
aI3600
aI3604
aI2698
aI1256
aI2950
aI2990
aI2991
aI2910
aI2911
aI2912
aI2914
aI2915
aI3140
aI3141
aI3142
aI3143
aI3146
aI3147
aI449
aI443
aI447
aI446
aI444
aI3094
aI1249
aI1248
aI3098
aI3099
aI3125
aI3377
aI3375
aI2659
aI2658
aI2657
aI2656
aI2655
aI139
aI138
aI3000
aI2903
aI2902
aI2901
aI2900
aI2905
aI2908
aI88
aI89
aI87
aI3153
aI3152
aI3151
aI3157
aI3156
aI450
aI318
aI314
aI3191
aI322
aI323
aI320
aI324
aI2654
aI3379
aI3378
aI2798
aI2799
aI3376
aI2792
aI2791
aI2796
aI3374
aI3373
aI3372
aI3371
aI3370
aI3579
aI3575
aI3574
aI3577
aI3576
aI2666
aI2667
aI2664
aI2665
aI2662
aI2663
aI2660
aI2661
aI2668
aI2669
aI2938
aI2939
aI2936
aI2934
aI2935
aI2933
aI2930
aI2931
aI3595
aI1252
aI3168
aI3169
aI2800
aI2801
aI3368
aI3369
aI3364
aI3365
aI3366
aI3367
aI3360
aI3362
aI3363
aI3189
aI3214
aI2793
aI267
aI269
aI268
aI112
aI2785
aI2784
aI2787
aI2786
aI2781
aI2783
aI2782
aI2789
aI2788
aI3508
aI3509
aI3503
aI3505
aI3506
aI3507
aI2670
aI2673
aI2672
aI2675
aI2674
aI2677
aI2676
aI2678
aI2929
aI2928
aI2921
aI2920
aI2923
aI2922
aI2925
aI2924
aI2927
aI2926
aI2907
aI2906
aI2904
aI2909
aI3170
aI3092
aI2913
aI44
aI3195
aI2916
aa(lp10
I2320
aI2318
aI2319
aI2316
aI2317
aI2314
aI2315
aI2312
aI2313
aI2310
aI2311
aI3198
aI3518
aI3516
aI3515
aI2688
aI2689
aI2684
aI2685
aI2686
aI2687
aI2680
aI2681
aI2682
aI2683
aI1176
aI1175
aI1174
aI1173
aI1172
aI1171
aI1170
aI1178
aI400
aI375
aI376
aI393
aI396
aI395
aI394
aI399
aI2309
aI2308
aI2301
aI2300
aI2303
aI2302
aI2305
aI2304
aI2307
aI2306
aI2275
aI2274
aI2277
aI2276
aI2271
aI2273
aI2272
aI2279
aI2278
aI3527
aI3522
aI3523
aI3520
aI3521
aI3528
aI2694
aI2693
aI2691
aI2690
aI1149
aI1507
aI1159
aI1158
aI1155
aI1154
aI1157
aI1156
aI1151
aI1150
aI1153
aI1152
aI1160
aI2505
aI2504
aI2503
aI2502
aI2501
aI2500
aI524
aI525
aI526
aI527
aI523
aI528
aI473
aI2538
aI2532
aI2533
aI2530
aI2531
aI2536
aI2537
aI2534
aI2535
aI2154
aI2155
aI2156
aI2150
aI2151
aI2152
aI2153
aI932
aI931
aI930
aI937
aI936
aI935
aI934
aI471
aI929
aI799
aI1922
aI1925
aI1926
aI928
aI2529
aI2147
aI2146
aI2145
aI2144
aI2143
aI2149
aI2148
aI1920
aI1921
aI1923
aI1924
aI1927
aI1928
aI1929
aI3199
aI465
aI782
aI939
aI938
aI1930
aI607
aI609
aI608
aI1506
aI467
aI466
aI483
aI482
aI612
aI613
aI610
aI611
aI614
aI615
aI3265
aI3264
aI3266
aI2289
aI2280
aI2281
aI2282
aI2284
aI2285
aI2286
aI2287
aI2374
aI2375
aI2373
aI1919
aI1918
aI1911
aI1913
aI1916
aI1912
aI1915
aI1914
aI1917
aI1463
aI464
aI2692
aI2299
aI2298
aI2293
aI2292
aI2291
aI2290
aI2297
aI2296
aI2295
aI2294
aI401
aI2494
aI305
aI306
aI307
aI470
aI477
aI715
aI1665
aI1664
aI1663
aI39
aI38
aI1462
aI942
aI940
aI941
aI453
aI1502
aI1503
aI1504
aI1505
aI1508
aI2488
aI2489
aI469
aI468
aI2323
aI2322
aI2321
aI2327
aI2326
aI2325
aI2324
aI2328
aI484
aI2499
aI2498
aI2491
aI2490
aI2492
aI2495
aI2497
aI2496
aI117
aI2679
aI1164
aI1165
aI1167
aI1161
aI1162
aI1163
aI1168
aI1169
aI40
aI474
aI472
aI476
aI475
aI478
aI479
aa(lp11
I407
aI406
aI3593
aI3591
aI3594
aI1388
aI1389
aI1384
aI1385
aI1386
aI1387
aI1380
aI1381
aI1382
aI1383
aI3582
aI3583
aI3588
aI3589
aI1399
aI1398
aI1397
aI1396
aI1393
aI1392
aI1395
aI1394
aI1391
aI1390
aI149
aI829
aI828
aI825
aI824
aI827
aI826
aI823
aI13
aI12
aI15
aI14
aI17
aI16
aI830
aI834
aI831
aI3581
aI3584
aI3585
aI3586
aI3587
aI3590
aI2475
aI2474
aI2479
aI2478
aI1403
aI1402
aI1401
aI1400
aI1407
aI1406
aI1405
aI1404
aI832
aI833
aI835
aI2477
aI2476
aI3171
aI3173
aI3172
aa(lp12
I1200
aI344
aI345
aI346
aI347
aI340
aI341
aI342
aI343
aI348
aI349
aI585
aI276
aI98
aI97
aI96
aI1199
aI1198
aI1193
aI1192
aI1195
aI1194
aI1197
aI1196
aI1226
aI1225
aI1224
aI1223
aI1222
aI1221
aI1220
aI397
aI2337
aI173
aI3087
aI3086
aI1977
aI1976
aI1975
aI1973
aI1972
aI1971
aI1970
aI1968
aI1969
aI1966
aI1967
aI1960
aI3356
aI3359
aI388
aI162
aI2512
aI2513
aI1979
aI1978
aI1974
aI2565
aI1948
aI1949
aI1942
aI1943
aI1940
aI1941
aI1946
aI1947
aI1944
aI1945
aI3337
aI3336
aI3335
aI3339
aI3338
aI522
aI1234
aI1235
aI1236
aI1237
aI1230
aI1231
aI1232
aI1233
aI1238
aI1239
aI1961
aI3342
aI3343
aI2157
aI1955
aI1954
aI1957
aI1956
aI1951
aI1950
aI1953
aI1952
aI1959
aI1958
aI714
aI519
aI518
aI1227
aI1229
aI1228
aI3275
aI3274
aI3273
aI1212
aI1213
aI1210
aI1216
aI1217
aI1218
aI1219
aI2778
aI2779
aI2774
aI2775
aI2776
aI2777
aI915
aI914
aI917
aI916
aI911
aI910
aI913
aI912
aI2604
aI2605
aI2606
aI2607
aI2600
aI2601
aI2602
aI2603
aI2608
aI2609
aI1933
aI1932
aI1931
aI1937
aI1936
aI1935
aI1934
aI1939
aI1938
aI604
aI606
aI601
aI600
aI603
aI602
aI1205
aI1204
aI1207
aI1206
aI1203
aI1202
aI1211
aI1214
aI1215
aI2381
aI2380
aI2382
aI902
aI903
aI900
aI901
aI906
aI907
aI904
aI905
aI2168
aI2165
aI2164
aI2167
aI2166
aI2161
aI2160
aI2163
aI2162
aI2617
aI2616
aI2615
aI2614
aI2613
aI2612
aI2611
aI2610
aI2619
aI2618
aI3334
aI21
aI22
aI23
aI2578
aI2579
aI2576
aI2577
aI2574
aI2575
aI2572
aI2573
aI2570
aI2571
aI2378
aI2379
aI2376
aI2377
aI2594
aI2595
aI2596
aI2597
aI2590
aI2591
aI2592
aI2593
aI2598
aI2599
aI2622
aI2623
aI2620
aI2621
aI2626
aI2627
aI2624
aI2625
aI2628
aI2629
aI1209
aI520
aI521
aI909
aI2569
aI2568
aI2563
aI2567
aI2566
aI908
aI2587
aI2586
aI2585
aI2584
aI2583
aI2582
aI2581
aI2580
aI2589
aI2588
aI2639
aI2638
aI2635
aI2634
aI2637
aI2636
aI2631
aI2630
aI2633
aI2632
aI1241
aI893
aI894
aI895
aI896
aI897
aI898
aI899
aI1247
aI1964
aI1965
aI1962
aI1963
aI3135
aI3134
aI3136
aI3340
aI2640
aI2641
aI2642
aI2643
aI593
aI592
aI595
aI594
aI597
aI596
aI599
aI598
aI1240
aI1243
aI1242
aI1245
aI1244
aI1246
aI339
aI338
aI335
aI334
aI337
aI336
aI331
aI333
aI332
aI2341
aI2340
aI2564
aI3562
aI3561
aI3566
aI3567
aI3565
aI3568
aI3569
aI586
aI587
aI584
aI583
aI588
aI589
aI1983
aI451
aI452
aI3089
aI3088
aI2330
aI2331
aI2332
aI2333
aI2334
aI2335
aI2336
aI2338
aI2339
aI3571
aI3573
aI3572
aI605
aI463
aI462
aI2158
aI2159
aI582
aI357
aI356
aI355
aI354
aI353
aI352
aI351
aI350
aI2329
aI113
aI2780
aI1208
aI1986
aI1987
aI1984
aI1985
aI1982
aI1980
aI1981
aI1988
aI1989
aI591
aI590
aI1201
aa(lp13
I278
aI279
aI2442
aI2443
aI2440
aI2441
aI2446
aI2447
aI2444
aI2445
aI2449
aI94
aI3348
aI3349
aI2459
aI2458
aI2455
aI2454
aI2457
aI2456
aI2451
aI2450
aI2453
aI2452
aI179
aI178
aI177
aI176
aI175
aI174
aI414
aI415
aI417
aI413
aI2428
aI2429
aI2420
aI2421
aI2422
aI2423
aI2424
aI2425
aI2426
aI2427
aI163
aI3537
aI3539
aI3538
aI3320
aI3321
aI429
aI423
aI422
aI427
aI426
aI2431
aI2430
aI2437
aI2436
aI2435
aI2434
aI3333
aI421
aI420
aI425
aI424
aI434
aI433
aI430
aI431
aI3082
aI3065
aI3064
aI3068
aI3248
aI3240
aI2409
aI2411
aI2412
aI2415
aI2414
aI2417
aI2419
aI2418
aI3332
aI3319
aI3315
aI3317
aI3316
aI2439
aI2438
aI2433
aI2432
aI2416
aI2770
aI2771
aI2772
aI3070
aI3071
aI3077
aI3254
aI3063
aI3067
aI3066
aI3330
aI182
aI180
aI184
aI3237
aI3540
aI3542
aI3069
aI3131
aI3133
aI3132
aI3058
aI3059
aI3057
aI3053
aI33
aI32
aI3253
aI418
aI419
aI3085
aI3084
aI3081
aI3080
aI3083
aI3072
aI3073
aI3074
aI3075
aI3076
aI3078
aI3079
aI122
aI127
aI3255
aa(lp14
I294
aI292
aI293
aI290
aI291
aI95
aI2741
aI2740
aI2743
aI2747
aI2746
aI2749
aI2748
aI3194
aI371
aI370
aI373
aI372
aI3256
aI3042
aI368
aI369
aI366
aI367
aI364
aI362
aI363
aI360
aI361
aI164
aI2734
aI2735
aI2736
aI2737
aI2730
aI2731
aI2732
aI2733
aI2738
aI2739
aI3295
aI2727
aI2726
aI2725
aI2724
aI2723
aI2729
aI2728
aI280
aI3258
aI3029
aI3028
aI142
aI3346
aI3344
aI3345
aI3246
aI3244
aI3302
aI3300
aI3301
aI3018
aI3019
aI3012
aI3013
aI3016
aI3017
aI3014
aI3193
aI3192
aI2550
aI2551
aI2552
aI2553
aI2554
aI2555
aI2556
aI2557
aI2558
aI2559
aI195
aI194
aI197
aI191
aI190
aI193
aI192
aI2543
aI2542
aI2547
aI2546
aI2545
aI2544
aI2549
aI2769
aI2768
aI2763
aI2762
aI2761
aI2767
aI2766
aI2765
aI3298
aI3061
aI3060
aI26
aI27
aI181
aI186
aI187
aI188
aI189
aI3284
aI3283
aI2751
aI2758
aI2759
aI3027
aI3025
aI3024
aI3022
aI3021
aI3020
aI3128
aI2756
aI2757
aI2754
aI2755
aI2752
aI2753
aI2750
aI2561
aI2560
aI2562
aI2742
aI2745
aI2744
aI3236
aI3049
aI3048
aI3041
aI3040
aI3043
aI3045
aI3044
aI3047
aI3046
aI3030
aI3130
aI3052
aI3050
aI3051
aI3033
aI3026
aI3557
aI3556
aI3555
aI3554
aI3559
aI3558
aI3023
aI3038
aI3039
aI3560
aI3034
aI3035
aI3036
aI3037
aI3031
aI3032
aI121
aI3257
aI3129
aI359
aI358
aI289
aI288
aI281
aI282
aI285
aI287
aI286
aa(lp15
I2189
aI108
aI109
aI105
aI1991
aI1990
aI1993
aI1994
aI1997
aI1996
aI1999
aI1998
aI511
aI510
aI513
aI512
aI515
aI514
aI3226
aI3233
aI412
aI2190
aI2191
aI2192
aI2194
aI2195
aI2196
aI2197
aI2198
aI2200
aI2201
aI2202
aI2203
aI2204
aI2205
aI2206
aI2207
aI2208
aI2209
aI3291
aI3292
aI2183
aI2182
aI2181
aI2180
aI2187
aI2186
aI2184
aI2188
aI2213
aI2212
aI2211
aI2210
aI2217
aI2216
aI2215
aI2214
aI2219
aI2218
aI2199
aI3259
aI1992
aI2462
aI2228
aI2229
aI2226
aI2227
aI2224
aI2225
aI2222
aI2223
aI2220
aI2221
aI130
aI3243
aI3242
aI3241
aI3227
aI3308
aI3304
aI3305
aI1995
aI3272
aI3271
aI2239
aI2238
aI2231
aI2230
aI2233
aI2232
aI2235
aI2234
aI2237
aI2236
aI2185
aI3270
aI508
aI505
aI502
aI503
aI500
aI2172
aI2173
aI2170
aI2171
aI2174
aI2175
aI3269
aI458
aI509
aI501
aI2169
aI3293
aI1056
aI498
aI499
aI494
aI495
aI496
aI497
aI490
aI491
aI492
aI493
aI28
aI977
aI3289
aI3288
aI2460
aI3287
aI3286
aI2461
aI2350
aI2002
aI2003
aI2000
aI2001
aI2006
aI2007
aI2004
aI2005
aI2008
aI2009
aI506
aI507
aI3553
aI3552
aI2176
aI504
aI2177
aI713
aI2178
aI2179
aI1668
aI1667
aI3261
aI3260
aI2345
aI2347
aI2346
aI2349
aI2348
aI135
aI2015
aI2014
aI2011
aI2010
aI2013
aI2012
aI580
aI581
aI517
aI516
aI2240
aI2241
aI2242
aI2243
aI120
aI126
aI579
aI578
aI573
aI572
aI571
aI570
aI577
aI576
aI575
aI574
aI3234
aI3225
aI2193
aI115
aI119
aa(lp16
I1132
aI1110
aI3232
aI3231
aI3228
aI3327
aI3329
aI1128
aI1129
aI1120
aI1121
aI1122
aI1123
aI1124
aI1125
aI1126
aI1127
aI1018
aI1019
aI1014
aI1015
aI1016
aI1017
aI1012
aI1013
aI3249
aI821
aI1131
aI1130
aI1009
aI1008
aI1007
aI1006
aI1005
aI1004
aI1003
aI1002
aI1001
aI1000
aI1038
aI1032
aI1030
aI1106
aI1107
aI1104
aI1105
aI1102
aI1103
aI1100
aI1101
aI1108
aI1109
aI3268
aI1039
aI1025
aI1024
aI1027
aI1031
aI1021
aI1020
aI1023
aI1022
aI1036
aI1115
aI1029
aI1028
aI1037
aI1113
aI1112
aI1114
aI1117
aI1116
aI1119
aI3250
aI3251
aI1050
aI1051
aI1052
aI1057
aI1059
aI3267
aI1083
aI974
aI973
aI972
aI971
aI970
aI1080
aI979
aI978
aI1043
aI1047
aI1046
aI1045
aI1044
aI1049
aI1048
aI1010
aI1011
aI964
aI965
aI966
aI967
aI960
aI961
aI962
aI963
aI968
aI969
aI3544
aI3545
aI3546
aI3547
aI3543
aI3548
aI3549
aI1078
aI1079
aI1076
aI1077
aI1074
aI1075
aI1072
aI1073
aI1070
aI1071
aI1094
aI1095
aI1096
aI1097
aI1090
aI1091
aI1092
aI1093
aI1098
aI1099
aI1410
aI1411
aI1412
aI959
aI958
aI951
aI953
aI952
aI955
aI957
aI956
aI1069
aI1068
aI1061
aI1060
aI1063
aI1062
aI1065
aI1064
aI1067
aI1066
aI1087
aI1086
aI1089
aI1088
aI1409
aI31
aI30
aI1111
aI1085
aI1084
aI131
aI1082
aI1081
aI3252
aI995
aI994
aI997
aI996
aI991
aI990
aI993
aI992
aI999
aI998
aI123
aI1033
aI989
aI982
aI983
aI980
aI981
aI986
aI987
aI985
aI116
aI1035
aI1026
aa.